
Urs_projekt.elf:     file format elf32-avr

Sections:
Idx Name          Size      VMA       LMA       File off  Algn
  0 .text         00003ca8  00000000  00000000  00000094  2**1
                  CONTENTS, ALLOC, LOAD, READONLY, CODE
  1 .data         000000de  00800060  00003ca8  00003d3c  2**0
                  CONTENTS, ALLOC, LOAD, DATA
  2 .bss          00000041  0080013e  0080013e  00003e1a  2**0
                  ALLOC
  3 .comment      00000030  00000000  00000000  00003e1a  2**0
                  CONTENTS, READONLY
  4 .note.gnu.avr.deviceinfo 0000003c  00000000  00000000  00003e4c  2**2
                  CONTENTS, READONLY
  5 .debug_aranges 00000300  00000000  00000000  00003e88  2**3
                  CONTENTS, READONLY, DEBUGGING
  6 .debug_info   00007de4  00000000  00000000  00004188  2**0
                  CONTENTS, READONLY, DEBUGGING
  7 .debug_abbrev 00000e2a  00000000  00000000  0000bf6c  2**0
                  CONTENTS, READONLY, DEBUGGING
  8 .debug_line   000025a8  00000000  00000000  0000cd96  2**0
                  CONTENTS, READONLY, DEBUGGING
  9 .debug_frame  00000be0  00000000  00000000  0000f340  2**2
                  CONTENTS, READONLY, DEBUGGING
 10 .debug_str    00000f5e  00000000  00000000  0000ff20  2**0
                  CONTENTS, READONLY, DEBUGGING
 11 .debug_loc    00004797  00000000  00000000  00010e7e  2**0
                  CONTENTS, READONLY, DEBUGGING
 12 .debug_ranges 00000278  00000000  00000000  00015615  2**0
                  CONTENTS, READONLY, DEBUGGING

Disassembly of section .text:

00000000 <__vectors>:
       0:	0c 94 78 08 	jmp	0x10f0	; 0x10f0 <__ctors_end>
       4:	0c 94 a0 08 	jmp	0x1140	; 0x1140 <__bad_interrupt>
       8:	0c 94 a0 08 	jmp	0x1140	; 0x1140 <__bad_interrupt>
       c:	0c 94 a0 08 	jmp	0x1140	; 0x1140 <__bad_interrupt>
      10:	0c 94 a0 08 	jmp	0x1140	; 0x1140 <__bad_interrupt>
      14:	0c 94 a0 08 	jmp	0x1140	; 0x1140 <__bad_interrupt>
      18:	0c 94 a0 08 	jmp	0x1140	; 0x1140 <__bad_interrupt>
      1c:	0c 94 a0 08 	jmp	0x1140	; 0x1140 <__bad_interrupt>
      20:	0c 94 a0 08 	jmp	0x1140	; 0x1140 <__bad_interrupt>
      24:	0c 94 a0 08 	jmp	0x1140	; 0x1140 <__bad_interrupt>
      28:	0c 94 a0 08 	jmp	0x1140	; 0x1140 <__bad_interrupt>
      2c:	0c 94 a0 08 	jmp	0x1140	; 0x1140 <__bad_interrupt>
      30:	0c 94 a0 08 	jmp	0x1140	; 0x1140 <__bad_interrupt>
      34:	0c 94 a0 08 	jmp	0x1140	; 0x1140 <__bad_interrupt>
      38:	0c 94 a0 08 	jmp	0x1140	; 0x1140 <__bad_interrupt>
      3c:	0c 94 a0 08 	jmp	0x1140	; 0x1140 <__bad_interrupt>
      40:	0c 94 a0 08 	jmp	0x1140	; 0x1140 <__bad_interrupt>
      44:	0c 94 a0 08 	jmp	0x1140	; 0x1140 <__bad_interrupt>
      48:	0c 94 a0 08 	jmp	0x1140	; 0x1140 <__bad_interrupt>
      4c:	0c 94 dd 0a 	jmp	0x15ba	; 0x15ba <__vector_19>
      50:	0c 94 a0 08 	jmp	0x1140	; 0x1140 <__bad_interrupt>
      54:	4e 0c       	add	r4, r14
      56:	5b 0c       	add	r5, r11
      58:	68 0c       	add	r6, r8
      5a:	75 0c       	add	r7, r5
      5c:	82 0c       	add	r8, r2
      5e:	8f 0c       	add	r8, r15
      60:	9c 0c       	add	r9, r12
      62:	a9 0c       	add	r10, r9
      64:	b6 0c       	add	r11, r6
      66:	c3 0c       	add	r12, r3
      68:	d0 0c       	add	r13, r0
      6a:	dd 0c       	add	r13, r13
      6c:	ea 0c       	add	r14, r10
      6e:	f7 0c       	add	r15, r7
      70:	04 0d       	add	r16, r4
      72:	11 0d       	add	r17, r1
      74:	05 a8       	ldd	r0, Z+53	; 0x35
      76:	4c cd       	rjmp	.-1384   	; 0xfffffb10 <__eeprom_end+0xff7efb10>
      78:	b2 d4       	rcall	.+2404   	; 0x9de <__stack+0x57f>
      7a:	4e b9       	out	0x0e, r20	; 14
      7c:	38 36       	cpi	r19, 0x68	; 104
      7e:	a9 02       	muls	r26, r25
      80:	0c 50       	subi	r16, 0x0C	; 12
      82:	b9 91       	ld	r27, Y+
      84:	86 88       	ldd	r8, Z+22	; 0x16
      86:	08 3c       	cpi	r16, 0xC8	; 200
      88:	a6 aa       	std	Z+54, r10	; 0x36
      8a:	aa 2a       	or	r10, r26
      8c:	be 00       	.word	0x00be	; ????
      8e:	00 00       	nop
      90:	80 3f       	cpi	r24, 0xF0	; 240

00000092 <BigFont>:
      92:	10 10 20 5f 00 00 00 00 00 00 00 00 00 00 00 00     .. _............
	...
      ba:	07 00 0f 80 0f 80 0f 80 0f 80 0f 80 07 00 07 00     ................
      ca:	00 00 00 00 07 00 07 00 07 00 00 00 00 00 0e 38     ...............8
      da:	0e 38 0e 38 0e 38 06 30 00 00 00 00 00 00 00 00     .8.8.8.0........
	...
      f6:	00 00 0c 30 0c 30 0c 30 7f fe 7f fe 0c 30 0c 30     ...0.0.0.....0.0
     106:	0c 30 0c 30 7f fe 7f fe 0c 30 0c 30 0c 30 00 00     .0.0.....0.0.0..
     116:	00 00 02 40 02 40 0f f8 1f f8 1a 40 1a 40 1f f0     ...@.@.....@.@..
     126:	0f f8 02 58 02 58 1f f8 1f f0 02 40 02 40 00 00     ...X.X.....@.@..
     136:	00 00 00 00 00 00 0e 10 0e 30 0e 70 00 e0 01 c0     .........0.p....
     146:	03 80 07 00 0e 70 0c 70 08 70 00 00 00 00 00 00     .....p.p.p......
     156:	00 00 00 00 0f 00 19 80 19 80 19 80 0f 00 0f 08     ................
     166:	0f 98 19 f8 18 f0 18 e0 19 f0 0f 98 00 00 00 00     ................
     176:	00 00 00 00 07 00 07 00 07 00 0e 00 00 00 00 00     ................
	...
     19a:	00 f0 01 c0 03 80 07 00 0e 00 0e 00 0e 00 0e 00     ................
     1aa:	07 00 03 80 01 c0 00 f0 00 00 00 00 00 00 00 00     ................
     1ba:	0f 00 03 80 01 c0 00 e0 00 70 00 70 00 70 00 70     .........p.p.p.p
     1ca:	00 e0 01 c0 03 80 0f 00 00 00 00 00 00 00 00 00     ................
     1da:	01 80 11 88 09 90 07 e0 07 e0 3f fc 3f fc 07 e0     ..........?.?...
     1ea:	07 e0 09 90 11 88 01 80 00 00 00 00 00 00 00 00     ................
     1fa:	00 00 00 00 01 80 01 80 01 80 0f f0 0f f0 01 80     ................
     20a:	01 80 01 80 00 00 00 00 00 00 00 00 00 00 00 00     ................
	...
     22a:	00 00 07 00 07 00 07 00 0e 00 00 00 00 00 00 00     ................
	...
     242:	00 00 1f f8 1f f8 00 00 00 00 00 00 00 00 00 00     ................
	...
     26a:	00 00 07 00 07 00 07 00 00 00 00 00 00 00 00 00     ................
     27a:	00 02 00 06 00 0e 00 1c 00 38 00 70 00 e0 01 c0     .........8.p....
     28a:	03 80 07 00 0e 00 1c 00 00 00 00 00 00 00 00 00     ................
     29a:	0f f0 1c 38 1c 78 1c f8 1c f8 1d b8 1d b8 1f 38     ...8.x.........8
     2aa:	1f 38 1e 38 1c 38 0f f0 00 00 00 00 00 00 00 00     .8.8.8..........
     2ba:	01 80 01 80 03 80 1f 80 1f 80 03 80 03 80 03 80     ................
     2ca:	03 80 03 80 03 80 1f f0 00 00 00 00 00 00 00 00     ................
     2da:	0f e0 1c 70 1c 38 00 38 00 70 00 e0 01 c0 03 80     ...p.8.8.p......
     2ea:	07 00 0e 38 1c 38 1f f8 00 00 00 00 00 00 00 00     ...8.8..........
     2fa:	0f e0 1c 70 1c 38 00 38 00 70 03 c0 03 c0 00 70     ...p.8.8.p.....p
     30a:	00 38 1c 38 1c 70 0f e0 00 00 00 00 00 00 00 00     .8.8.p..........
     31a:	00 e0 01 e0 03 e0 06 e0 0c e0 18 e0 1f f8 1f f8     ................
     32a:	00 e0 00 e0 00 e0 03 f8 00 00 00 00 00 00 00 00     ................
     33a:	1f f8 1c 00 1c 00 1c 00 1c 00 1f e0 1f f0 00 78     ...............x
     34a:	00 38 1c 38 1c 70 0f e0 00 00 00 00 00 00 00 00     .8.8.p..........
     35a:	03 e0 07 00 0e 00 1c 00 1c 00 1f f0 1f f8 1c 38     ...............8
     36a:	1c 38 1c 38 1c 38 0f f0 00 00 00 00 00 00 00 00     .8.8.8..........
     37a:	1f fc 1c 1c 1c 1c 1c 1c 00 1c 00 38 00 70 00 e0     ...........8.p..
     38a:	01 c0 03 80 03 80 03 80 00 00 00 00 00 00 00 00     ................
     39a:	0f f0 1c 38 1c 38 1c 38 1f 38 07 e0 07 e0 1c f8     ...8.8.8.8......
     3aa:	1c 38 1c 38 1c 38 0f f0 00 00 00 00 00 00 00 00     .8.8.8..........
     3ba:	0f f0 1c 38 1c 38 1c 38 1c 38 1f f8 0f f8 00 38     ...8.8.8.8.....8
     3ca:	00 38 00 70 00 e0 07 c0 00 00 00 00 00 00 00 00     .8.p............
     3da:	00 00 00 00 03 80 03 80 03 80 00 00 00 00 03 80     ................
     3ea:	03 80 03 80 00 00 00 00 00 00 00 00 00 00 00 00     ................
     3fa:	00 00 00 00 03 80 03 80 03 80 00 00 00 00 03 80     ................
     40a:	03 80 03 80 07 00 00 00 00 00 00 00 00 00 00 70     ...............p
     41a:	00 e0 01 c0 03 80 07 00 0e 00 1c 00 1c 00 0e 00     ................
     42a:	07 00 03 80 01 c0 00 e0 00 70 00 00 00 00 00 00     .........p......
     43a:	00 00 00 00 00 00 3f fc 3f fc 00 00 00 00 3f fc     ......?.?.....?.
     44a:	3f fc 00 00 00 00 00 00 00 00 00 00 00 00 1c 00     ?...............
     45a:	0e 00 07 00 03 80 01 c0 00 e0 00 70 00 70 00 e0     ...........p.p..
     46a:	01 c0 03 80 07 00 0e 00 1c 00 00 00 00 00 03 c0     ................
     47a:	0f f0 1e 78 18 38 00 38 00 70 00 e0 01 c0 01 c0     ...x.8.8.p......
     48a:	00 00 00 00 01 c0 01 c0 01 c0 00 00 00 00 0f f8     ................
     49a:	1c 1c 1c 1c 1c 1c 1c 1c 1c fc 1c fc 1c fc 1c fc     ................
     4aa:	1c 00 1c 00 1c 00 1f f0 07 f8 00 00 00 00 00 00     ................
     4ba:	03 c0 07 e0 0e 70 1c 38 1c 38 1c 38 1c 38 1f f8     .....p.8.8.8.8..
     4ca:	1c 38 1c 38 1c 38 1c 38 00 00 00 00 00 00 00 00     .8.8.8.8........
     4da:	1f f0 0e 38 0e 38 0e 38 0e 38 0f f0 0f f0 0e 38     ...8.8.8.8.....8
     4ea:	0e 38 0e 38 0e 38 1f f0 00 00 00 00 00 00 00 00     .8.8.8..........
     4fa:	07 f0 0e 38 1c 38 1c 00 1c 00 1c 00 1c 00 1c 00     ...8.8..........
     50a:	1c 00 1c 38 0e 38 07 f0 00 00 00 00 00 00 00 00     ...8.8..........
     51a:	1f e0 0e 70 0e 38 0e 38 0e 38 0e 38 0e 38 0e 38     ...p.8.8.8.8.8.8
     52a:	0e 38 0e 38 0e 70 1f e0 00 00 00 00 00 00 00 00     .8.8.p..........
     53a:	1f f8 0e 18 0e 08 0e 00 0e 30 0f f0 0f f0 0e 30     .........0.....0
     54a:	0e 00 0e 08 0e 18 1f f8 00 00 00 00 00 00 00 00     ................
     55a:	1f f8 0e 18 0e 08 0e 00 0e 30 0f f0 0f f0 0e 30     .........0.....0
     56a:	0e 00 0e 00 0e 00 1f 00 00 00 00 00 00 00 00 00     ................
     57a:	07 f0 0e 38 1c 38 1c 38 1c 00 1c 00 1c 00 1c f8     ...8.8.8........
     58a:	1c 38 1c 38 0e 38 07 f8 00 00 00 00 00 00 00 00     .8.8.8..........
     59a:	1c 70 1c 70 1c 70 1c 70 1c 70 1f f0 1f f0 1c 70     .p.p.p.p.p.....p
     5aa:	1c 70 1c 70 1c 70 1c 70 00 00 00 00 00 00 00 00     .p.p.p.p........
     5ba:	0f e0 03 80 03 80 03 80 03 80 03 80 03 80 03 80     ................
     5ca:	03 80 03 80 03 80 0f e0 00 00 00 00 00 00 00 00     ................
     5da:	01 fc 00 70 00 70 00 70 00 70 00 70 00 70 38 70     ...p.p.p.p.p.p8p
     5ea:	38 70 38 70 38 70 0f e0 00 00 00 00 00 00 00 00     8p8p8p..........
     5fa:	1e 38 0e 38 0e 70 0e e0 0f c0 0f 80 0f 80 0f c0     .8.8.p..........
     60a:	0e e0 0e 70 0e 38 1e 38 00 00 00 00 00 00 00 00     ...p.8.8........
     61a:	1f 00 0e 00 0e 00 0e 00 0e 00 0e 00 0e 00 0e 00     ................
     62a:	0e 08 0e 18 0e 38 1f f8 00 00 00 00 00 00 00 00     .....8..........
     63a:	1c 1c 1e 3c 1f 7c 1f fc 1f fc 1d dc 1c 9c 1c 1c     ...<.|..........
     64a:	1c 1c 1c 1c 1c 1c 1c 1c 00 00 00 00 00 00 00 00     ................
     65a:	1c 1c 1c 1c 1e 1c 1f 1c 1f 9c 1d dc 1c fc 1c 7c     ...............|
     66a:	1c 3c 1c 1c 1c 1c 1c 1c 00 00 00 00 00 00 00 00     .<..............
     67a:	03 e0 07 f0 0e 38 1c 1c 1c 1c 1c 1c 1c 1c 1c 1c     .....8..........
     68a:	1c 1c 0e 38 07 f0 03 e0 00 00 00 00 00 00 00 00     ...8............
     69a:	1f f0 0e 38 0e 38 0e 38 0e 38 0f f0 0f f0 0e 00     ...8.8.8.8......
     6aa:	0e 00 0e 00 0e 00 1f 00 00 00 00 00 00 00 00 00     ................
     6ba:	03 e0 0f 78 0e 38 1c 1c 1c 1c 1c 1c 1c 1c 1c 7c     ...x.8.........|
     6ca:	1c fc 0f f8 0f f8 00 38 00 fc 00 00 00 00 00 00     .......8........
     6da:	1f f0 0e 38 0e 38 0e 38 0e 38 0f f0 0f f0 0e 70     ...8.8.8.8.....p
     6ea:	0e 38 0e 38 0e 38 1e 38 00 00 00 00 00 00 00 00     .8.8.8.8........
     6fa:	0f f0 1c 38 1c 38 1c 38 1c 00 0f e0 07 f0 00 38     ...8.8.8.......8
     70a:	1c 38 1c 38 1c 38 0f f0 00 00 00 00 00 00 00 00     .8.8.8..........
     71a:	1f fc 19 cc 11 c4 01 c0 01 c0 01 c0 01 c0 01 c0     ................
     72a:	01 c0 01 c0 01 c0 07 f0 00 00 00 00 00 00 00 00     ................
     73a:	1c 70 1c 70 1c 70 1c 70 1c 70 1c 70 1c 70 1c 70     .p.p.p.p.p.p.p.p
     74a:	1c 70 1c 70 1c 70 0f e0 00 00 00 00 00 00 00 00     .p.p.p..........
     75a:	1c 70 1c 70 1c 70 1c 70 1c 70 1c 70 1c 70 1c 70     .p.p.p.p.p.p.p.p
     76a:	1c 70 0e e0 07 c0 03 80 00 00 00 00 00 00 00 00     .p..............
     77a:	1c 1c 1c 1c 1c 1c 1c 1c 1c 1c 1c 9c 1c 9c 1c 9c     ................
     78a:	0f f8 0f f8 07 70 07 70 00 00 00 00 00 00 00 00     .....p.p........
     79a:	1c 70 1c 70 1c 70 0e e0 07 c0 03 80 03 80 07 c0     .p.p.p..........
     7aa:	0e e0 1c 70 1c 70 1c 70 00 00 00 00 00 00 00 00     ...p.p.p........
     7ba:	1c 70 1c 70 1c 70 1c 70 1c 70 0e e0 07 c0 03 80     .p.p.p.p.p......
     7ca:	03 80 03 80 03 80 0f e0 00 00 00 00 00 00 00 00     ................
     7da:	1f f8 1c 38 18 38 10 70 00 e0 01 c0 03 80 07 00     ...8.8.p........
     7ea:	0e 08 1c 18 1c 38 1f f8 00 00 00 00 00 00 00 00     .....8..........
     7fa:	07 f0 07 00 07 00 07 00 07 00 07 00 07 00 07 00     ................
     80a:	07 00 07 00 07 00 07 f0 00 00 00 00 00 00 00 00     ................
     81a:	10 00 18 00 1c 00 0e 00 07 00 03 80 01 c0 00 e0     ................
     82a:	00 70 00 38 00 1c 00 07 00 00 00 00 00 00 00 00     .p.8............
     83a:	07 f0 00 70 00 70 00 70 00 70 00 70 00 70 00 70     ...p.p.p.p.p.p.p
     84a:	00 70 00 70 00 70 07 f0 00 00 00 00 00 00 01 80     .p.p.p..........
     85a:	03 c0 07 e0 0e 70 1c 38 00 00 00 00 00 00 00 00     .....p.8........
	...
     892:	7f ff 7f ff 00 00 00 00 1c 00 1c 00 07 00 07 00     ................
	...
     8c2:	0f e0 00 70 00 70 0f f0 1c 70 1c 70 1c 70 0f d8     ...p.p...p.p.p..
	...
     8da:	1e 00 0e 00 0e 00 0e 00 0f f0 0e 38 0e 38 0e 38     ...........8.8.8
     8ea:	0e 38 0e 38 0e 38 1b f0 00 00 00 00 00 00 00 00     .8.8.8..........
	...
     902:	0f e0 1c 70 1c 70 1c 00 1c 00 1c 70 1c 70 0f e0     ...p.p.....p.p..
	...
     91a:	00 f8 00 70 00 70 00 70 0f f0 1c 70 1c 70 1c 70     ...p.p.p...p.p.p
     92a:	1c 70 1c 70 1c 70 0f d8 00 00 00 00 00 00 00 00     .p.p.p..........
	...
     942:	0f e0 1c 70 1c 70 1f f0 1c 00 1c 70 1c 70 0f e0     ...p.p.....p.p..
	...
     95a:	03 e0 07 70 07 70 07 00 07 00 1f e0 1f e0 07 00     ...p.p..........
     96a:	07 00 07 00 07 00 1f c0 00 00 00 00 00 00 00 00     ................
	...
     982:	0f d8 1c 70 1c 70 1c 70 1c 70 0f f0 07 f0 00 70     ...p.p.p.p.....p
     992:	1c 70 0f e0 00 00 00 00 1e 00 0e 00 0e 00 0e 00     .p..............
     9a2:	0e f0 0f 38 0f 38 0e 38 0e 38 0e 38 0e 38 1e 38     ...8.8.8.8.8.8.8
	...
     9ba:	01 c0 01 c0 01 c0 00 00 0f c0 01 c0 01 c0 01 c0     ................
     9ca:	01 c0 01 c0 01 c0 0f f8 00 00 00 00 00 00 00 00     ................
     9da:	00 70 00 70 00 70 00 00 03 f0 00 70 00 70 00 70     .p.p.p.....p.p.p
     9ea:	00 70 00 70 00 70 1c 70 0c f0 07 e0 00 00 00 00     .p.p.p.p........
     9fa:	1e 00 0e 00 0e 00 0e 00 0e 38 0e 70 0e e0 0f c0     .........8.p....
     a0a:	0e e0 0e 70 0e 38 1e 38 00 00 00 00 00 00 00 00     ...p.8.8........
     a1a:	0f c0 01 c0 01 c0 01 c0 01 c0 01 c0 01 c0 01 c0     ................
     a2a:	01 c0 01 c0 01 c0 0f f8 00 00 00 00 00 00 00 00     ................
	...
     a42:	1f f8 1c 9c 1c 9c 1c 9c 1c 9c 1c 9c 1c 9c 1c 9c     ................
	...
     a62:	1f e0 1c 70 1c 70 1c 70 1c 70 1c 70 1c 70 1c 70     ...p.p.p.p.p.p.p
	...
     a82:	0f e0 1c 70 1c 70 1c 70 1c 70 1c 70 1c 70 0f e0     ...p.p.p.p.p.p..
	...
     aa2:	1b f0 0e 38 0e 38 0e 38 0e 38 0e 38 0f f0 0e 00     ...8.8.8.8.8....
     ab2:	0e 00 1f 00 00 00 00 00 00 00 00 00 00 00 00 00     ................
     ac2:	1f b0 38 e0 38 e0 38 e0 38 e0 38 e0 1f e0 00 e0     ..8.8.8.8.8.....
     ad2:	00 e0 01 f0 00 00 00 00 00 00 00 00 00 00 00 00     ................
     ae2:	1e f0 0f f8 0f 38 0e 00 0e 00 0e 00 0e 00 1f 00     .....8..........
	...
     b02:	0f e0 1c 30 1c 30 0f 80 03 e0 18 70 18 70 0f e0     ...0.0.....p.p..
	...
     b1a:	00 00 01 00 03 00 07 00 1f f0 07 00 07 00 07 00     ................
     b2a:	07 00 07 70 07 70 03 e0 00 00 00 00 00 00 00 00     ...p.p..........
	...
     b42:	1c 70 1c 70 1c 70 1c 70 1c 70 1c 70 1c 70 0f d8     .p.p.p.p.p.p.p..
	...
     b62:	1c 70 1c 70 1c 70 1c 70 1c 70 0e e0 07 c0 03 80     .p.p.p.p.p......
	...
     b82:	1c 1c 1c 1c 1c 1c 1c 9c 1c 9c 0f f8 07 70 07 70     .............p.p
	...
     ba2:	1c e0 1c e0 0f c0 07 80 07 80 0f c0 1c e0 1c e0     ................
	...
     bc2:	0e 38 0e 38 0e 38 0e 38 0e 38 07 f0 03 e0 00 e0     .8.8.8.8.8......
     bd2:	01 c0 1f 80 00 00 00 00 00 00 00 00 00 00 00 00     ................
     be2:	1f e0 18 e0 11 c0 03 80 07 00 0e 20 1c 60 1f e0     ........... .`..
	...
     bfa:	01 f8 03 80 03 80 03 80 07 00 1c 00 1c 00 07 00     ................
     c0a:	03 80 03 80 03 80 01 f8 00 00 00 00 00 00 01 c0     ................
     c1a:	01 c0 01 c0 01 c0 01 c0 01 c0 01 c0 01 c0 01 c0     ................
     c2a:	01 c0 01 c0 01 c0 01 c0 01 c0 00 00 00 00 00 00     ................
     c3a:	1f 80 01 c0 01 c0 01 c0 00 e0 00 38 00 38 00 e0     ...........8.8..
     c4a:	01 c0 01 c0 01 c0 1f 80 00 00 00 00 00 00 00 00     ................
     c5a:	1f 1c 3b 9c 39 dc 38 f8 00 00 00 00 00 00 00 00     ..;.9.8.........
	...

00000c76 <SmallFont>:
     c76:	08 0c 20 5f 00 00 00 00 00 00 00 00 00 00 00 00     .. _............
     c86:	00 00 20 20 20 20 20 20 00 20 00 00 00 28 50 50     ..      . ...(PP
	...
     c9e:	00 00 28 28 fc 28 50 fc 50 50 00 00 00 20 78 a8     ..((.(P.PP... x.
     cae:	a0 60 30 28 a8 f0 20 00 00 00 48 a8 b0 50 28 34     .`0(.. ...H..P(4
     cbe:	54 48 00 00 00 00 20 50 50 78 a8 a8 90 6c 00 00     TH.... PPx...l..
     cce:	00 40 40 80 00 00 00 00 00 00 00 00 00 04 08 10     .@@.............
     cde:	10 10 10 10 10 08 04 00 00 40 20 10 10 10 10 10     .........@ .....
     cee:	10 20 40 00 00 00 00 20 a8 70 70 a8 20 00 00 00     . @.... .pp. ...
     cfe:	00 00 20 20 20 f8 20 20 20 00 00 00 00 00 00 00     ..   .   .......
     d0e:	00 00 00 00 00 40 40 80 00 00 00 00 00 f8 00 00     .....@@.........
	...
     d2a:	00 40 00 00 00 08 10 10 10 20 20 40 40 40 80 00     .@.......  @@@..
     d3a:	00 00 70 88 88 88 88 88 88 70 00 00 00 00 20 60     ..p......p.... `
     d4a:	20 20 20 20 20 70 00 00 00 00 70 88 88 10 20 40          p....p... @
     d5a:	80 f8 00 00 00 00 70 88 08 30 08 08 88 70 00 00     ......p..0...p..
     d6a:	00 00 10 30 50 50 90 78 10 18 00 00 00 00 f8 80     ...0PP.x........
     d7a:	80 f0 08 08 88 70 00 00 00 00 70 90 80 f0 88 88     .....p....p.....
     d8a:	88 70 00 00 00 00 f8 90 10 20 20 20 20 20 00 00     .p.......     ..
     d9a:	00 00 70 88 88 70 88 88 88 70 00 00 00 00 70 88     ..p..p...p....p.
     daa:	88 88 78 08 48 70 00 00 00 00 00 00 20 00 00 00     ..x.Hp...... ...
     dba:	00 20 00 00 00 00 00 00 00 20 00 00 00 20 20 00     . ....... ...  .
     dca:	00 04 08 10 20 40 20 10 08 04 00 00 00 00 00 00     .... @ .........
     dda:	f8 00 00 f8 00 00 00 00 00 40 20 10 08 04 08 10     .........@ .....
     dea:	20 40 00 00 00 00 70 88 88 10 20 20 00 20 00 00      @....p...  . ..
     dfa:	00 00 70 88 98 a8 a8 b8 80 78 00 00 00 00 20 20     ..p......x....  
     e0a:	30 50 50 78 48 cc 00 00 00 00 f0 48 48 70 48 48     0PPxH......HHpHH
     e1a:	48 f0 00 00 00 00 78 88 80 80 80 80 88 70 00 00     H.....x......p..
     e2a:	00 00 f0 48 48 48 48 48 48 f0 00 00 00 00 f8 48     ...HHHHHH......H
     e3a:	50 70 50 40 48 f8 00 00 00 00 f8 48 50 70 50 40     PpP@H......HPpP@
     e4a:	40 e0 00 00 00 00 38 48 80 80 9c 88 48 30 00 00     @.....8H....H0..
     e5a:	00 00 cc 48 48 78 48 48 48 cc 00 00 00 00 f8 20     ...HHxHHH...... 
     e6a:	20 20 20 20 20 f8 00 00 00 00 7c 10 10 10 10 10          .....|.....
     e7a:	10 90 e0 00 00 00 ec 48 50 60 50 50 48 ec 00 00     .......HP`PPH...
     e8a:	00 00 e0 40 40 40 40 40 44 fc 00 00 00 00 d8 d8     ...@@@@@D.......
     e9a:	d8 d8 a8 a8 a8 a8 00 00 00 00 dc 48 68 68 58 58     ...........HhhXX
     eaa:	48 e8 00 00 00 00 70 88 88 88 88 88 88 70 00 00     H.....p......p..
     eba:	00 00 f0 48 48 70 40 40 40 e0 00 00 00 00 70 88     ...HHp@@@.....p.
     eca:	88 88 88 e8 98 70 18 00 00 00 f0 48 48 70 50 48     .....p.....HHpPH
     eda:	48 ec 00 00 00 00 78 88 80 60 10 08 88 f0 00 00     H.....x..`......
     eea:	00 00 f8 a8 20 20 20 20 20 70 00 00 00 00 cc 48     ....     p.....H
     efa:	48 48 48 48 48 30 00 00 00 00 cc 48 48 50 50 30     HHHHH0.....HHPP0
     f0a:	20 20 00 00 00 00 a8 a8 a8 70 50 50 50 50 00 00       .......pPPPP..
     f1a:	00 00 d8 50 50 20 20 50 50 d8 00 00 00 00 d8 50     ...PP  PP......P
     f2a:	50 20 20 20 20 70 00 00 00 00 f8 90 10 20 20 40     P    p.......  @
     f3a:	48 f8 00 00 00 38 20 20 20 20 20 20 20 20 38 00     H....8        8.
     f4a:	00 40 40 40 20 20 10 10 10 08 00 00 00 70 10 10     .@@@  .......p..
     f5a:	10 10 10 10 10 10 70 00 00 20 50 00 00 00 00 00     ......p.. P.....
	...
     f76:	00 00 00 fc 00 20 00 00 00 00 00 00 00 00 00 00     ..... ..........
     f86:	00 00 00 00 00 30 48 38 48 3c 00 00 00 00 c0 40     .....0H8H<.....@
     f96:	40 70 48 48 48 70 00 00 00 00 00 00 00 38 48 40     @pHHHp.......8H@
     fa6:	40 38 00 00 00 00 18 08 08 38 48 48 48 3c 00 00     @8.......8HHH<..
     fb6:	00 00 00 00 00 30 48 78 40 38 00 00 00 00 1c 20     .....0Hx@8..... 
     fc6:	20 78 20 20 20 78 00 00 00 00 00 00 00 3c 48 30      x   x.......<H0
     fd6:	40 78 44 38 00 00 c0 40 40 70 48 48 48 ec 00 00     @xD8...@@pHHH...
     fe6:	00 00 20 00 00 60 20 20 20 70 00 00 00 00 10 00     .. ..`   p......
     ff6:	00 30 10 10 10 10 10 e0 00 00 c0 40 40 5c 50 70     .0.........@@\Pp
    1006:	48 ec 00 00 00 00 e0 20 20 20 20 20 20 f8 00 00     H......      ...
    1016:	00 00 00 00 00 f0 a8 a8 a8 a8 00 00 00 00 00 00     ................
    1026:	00 f0 48 48 48 ec 00 00 00 00 00 00 00 30 48 48     ..HHH........0HH
    1036:	48 30 00 00 00 00 00 00 00 f0 48 48 48 70 40 e0     H0........HHHp@.
    1046:	00 00 00 00 00 38 48 48 48 38 08 1c 00 00 00 00     .....8HHH8......
    1056:	00 d8 60 40 40 e0 00 00 00 00 00 00 00 78 40 30     ..`@@........x@0
    1066:	08 78 00 00 00 00 00 20 20 70 20 20 20 18 00 00     .x.....  p   ...
    1076:	00 00 00 00 00 d8 48 48 48 3c 00 00 00 00 00 00     ......HHH<......
    1086:	00 ec 48 50 30 20 00 00 00 00 00 00 00 a8 a8 70     ..HP0 .........p
    1096:	50 50 00 00 00 00 00 00 00 d8 50 20 50 d8 00 00     PP........P P...
    10a6:	00 00 00 00 00 ec 48 50 30 20 20 c0 00 00 00 00     ......HP0  .....
    10b6:	00 78 10 20 20 78 00 00 00 18 10 10 10 20 10 10     .x.  x....... ..
    10c6:	10 10 18 00 10 10 10 10 10 10 10 10 10 10 10 10     ................
    10d6:	00 60 20 20 20 10 20 20 20 20 60 00 40 a4 18 00     .`   .    `.@...
	...

000010ee <__ctors_start>:
    10ee:	f8 12       	cpse	r15, r24

000010f0 <__ctors_end>:
    10f0:	11 24       	eor	r1, r1
    10f2:	1f be       	out	0x3f, r1	; 63
    10f4:	cf e5       	ldi	r28, 0x5F	; 95
    10f6:	d4 e0       	ldi	r29, 0x04	; 4
    10f8:	de bf       	out	0x3e, r29	; 62
    10fa:	cd bf       	out	0x3d, r28	; 61

000010fc <__do_copy_data>:
    10fc:	11 e0       	ldi	r17, 0x01	; 1
    10fe:	a0 e6       	ldi	r26, 0x60	; 96
    1100:	b0 e0       	ldi	r27, 0x00	; 0
    1102:	e8 ea       	ldi	r30, 0xA8	; 168
    1104:	fc e3       	ldi	r31, 0x3C	; 60
    1106:	02 c0       	rjmp	.+4      	; 0x110c <__do_copy_data+0x10>
    1108:	05 90       	lpm	r0, Z+
    110a:	0d 92       	st	X+, r0
    110c:	ae 33       	cpi	r26, 0x3E	; 62
    110e:	b1 07       	cpc	r27, r17
    1110:	d9 f7       	brne	.-10     	; 0x1108 <__do_copy_data+0xc>

00001112 <__do_clear_bss>:
    1112:	21 e0       	ldi	r18, 0x01	; 1
    1114:	ae e3       	ldi	r26, 0x3E	; 62
    1116:	b1 e0       	ldi	r27, 0x01	; 1
    1118:	01 c0       	rjmp	.+2      	; 0x111c <.do_clear_bss_start>

0000111a <.do_clear_bss_loop>:
    111a:	1d 92       	st	X+, r1

0000111c <.do_clear_bss_start>:
    111c:	af 37       	cpi	r26, 0x7F	; 127
    111e:	b2 07       	cpc	r27, r18
    1120:	e1 f7       	brne	.-8      	; 0x111a <.do_clear_bss_loop>

00001122 <__do_global_ctors>:
    1122:	18 e0       	ldi	r17, 0x08	; 8
    1124:	c8 e7       	ldi	r28, 0x78	; 120
    1126:	d8 e0       	ldi	r29, 0x08	; 8
    1128:	04 c0       	rjmp	.+8      	; 0x1132 <__do_global_ctors+0x10>
    112a:	21 97       	sbiw	r28, 0x01	; 1
    112c:	fe 01       	movw	r30, r28
    112e:	0e 94 ba 1d 	call	0x3b74	; 0x3b74 <__tablejump2__>
    1132:	c7 37       	cpi	r28, 0x77	; 119
    1134:	d1 07       	cpc	r29, r17
    1136:	c9 f7       	brne	.-14     	; 0x112a <__do_global_ctors+0x8>
    1138:	0e 94 9b 12 	call	0x2536	; 0x2536 <main>
    113c:	0c 94 52 1e 	jmp	0x3ca4	; 0x3ca4 <_exit>

00001140 <__bad_interrupt>:
    1140:	0c 94 00 00 	jmp	0	; 0x0 <__vectors>

00001144 <fastbitmap_1bit>:
		r20:r21 fg color 
		r18:r19 bg color
	*/

	/* this block sets up the TOGGLE_WR_FAST registers r30:r31 */
	in r26, _SFR_IO_ADDR(WR_PORT)
    1144:	a5 b3       	in	r26, 0x15	; 21
	mov r27, r26
    1146:	ba 2f       	mov	r27, r26
	set
    1148:	68 94       	set
	bld r26,WR_PIN
    114a:	a6 f9       	bld	r26, 6
	clt
    114c:	e8 94       	clt
	bld r27,WR_PIN
    114e:	b6 f9       	bld	r27, 6
	
	movw r30, r22
    1150:	fb 01       	movw	r30, r22

00001152 <FB1BIT_LOOP>:

FB1BIT_LOOP:

	LPM r0, Z+
    1152:	05 90       	lpm	r0, Z+

	PLOT_MONO_PIXEL r0,7
    1154:	07 fa       	bst	r0, 7
    1156:	1e f4       	brtc	.+6      	; 0x115e <FB1BIT_LOOP+0xc>
    1158:	42 bb       	out	0x12, r20	; 18
    115a:	5b bb       	out	0x1b, r21	; 27
    115c:	02 c0       	rjmp	.+4      	; 0x1162 <FB1BIT_LOOP+0x10>
    115e:	22 bb       	out	0x12, r18	; 18
    1160:	3b bb       	out	0x1b, r19	; 27
    1162:	b5 bb       	out	0x15, r27	; 21
    1164:	a5 bb       	out	0x15, r26	; 21
	PLOT_MONO_PIXEL r0,6
    1166:	06 fa       	bst	r0, 6
    1168:	1e f4       	brtc	.+6      	; 0x1170 <FB1BIT_LOOP+0x1e>
    116a:	42 bb       	out	0x12, r20	; 18
    116c:	5b bb       	out	0x1b, r21	; 27
    116e:	02 c0       	rjmp	.+4      	; 0x1174 <FB1BIT_LOOP+0x22>
    1170:	22 bb       	out	0x12, r18	; 18
    1172:	3b bb       	out	0x1b, r19	; 27
    1174:	b5 bb       	out	0x15, r27	; 21
    1176:	a5 bb       	out	0x15, r26	; 21
	PLOT_MONO_PIXEL r0,5
    1178:	05 fa       	bst	r0, 5
    117a:	1e f4       	brtc	.+6      	; 0x1182 <FB1BIT_LOOP+0x30>
    117c:	42 bb       	out	0x12, r20	; 18
    117e:	5b bb       	out	0x1b, r21	; 27
    1180:	02 c0       	rjmp	.+4      	; 0x1186 <FB1BIT_LOOP+0x34>
    1182:	22 bb       	out	0x12, r18	; 18
    1184:	3b bb       	out	0x1b, r19	; 27
    1186:	b5 bb       	out	0x15, r27	; 21
    1188:	a5 bb       	out	0x15, r26	; 21
	PLOT_MONO_PIXEL r0,4
    118a:	04 fa       	bst	r0, 4
    118c:	1e f4       	brtc	.+6      	; 0x1194 <FB1BIT_LOOP+0x42>
    118e:	42 bb       	out	0x12, r20	; 18
    1190:	5b bb       	out	0x1b, r21	; 27
    1192:	02 c0       	rjmp	.+4      	; 0x1198 <FB1BIT_LOOP+0x46>
    1194:	22 bb       	out	0x12, r18	; 18
    1196:	3b bb       	out	0x1b, r19	; 27
    1198:	b5 bb       	out	0x15, r27	; 21
    119a:	a5 bb       	out	0x15, r26	; 21
	PLOT_MONO_PIXEL r0,3
    119c:	03 fa       	bst	r0, 3
    119e:	1e f4       	brtc	.+6      	; 0x11a6 <FB1BIT_LOOP+0x54>
    11a0:	42 bb       	out	0x12, r20	; 18
    11a2:	5b bb       	out	0x1b, r21	; 27
    11a4:	02 c0       	rjmp	.+4      	; 0x11aa <FB1BIT_LOOP+0x58>
    11a6:	22 bb       	out	0x12, r18	; 18
    11a8:	3b bb       	out	0x1b, r19	; 27
    11aa:	b5 bb       	out	0x15, r27	; 21
    11ac:	a5 bb       	out	0x15, r26	; 21
	PLOT_MONO_PIXEL r0,2
    11ae:	02 fa       	bst	r0, 2
    11b0:	1e f4       	brtc	.+6      	; 0x11b8 <FB1BIT_LOOP+0x66>
    11b2:	42 bb       	out	0x12, r20	; 18
    11b4:	5b bb       	out	0x1b, r21	; 27
    11b6:	02 c0       	rjmp	.+4      	; 0x11bc <FB1BIT_LOOP+0x6a>
    11b8:	22 bb       	out	0x12, r18	; 18
    11ba:	3b bb       	out	0x1b, r19	; 27
    11bc:	b5 bb       	out	0x15, r27	; 21
    11be:	a5 bb       	out	0x15, r26	; 21
	PLOT_MONO_PIXEL r0,1
    11c0:	01 fa       	bst	r0, 1
    11c2:	1e f4       	brtc	.+6      	; 0x11ca <FB1BIT_LOOP+0x78>
    11c4:	42 bb       	out	0x12, r20	; 18
    11c6:	5b bb       	out	0x1b, r21	; 27
    11c8:	02 c0       	rjmp	.+4      	; 0x11ce <FB1BIT_LOOP+0x7c>
    11ca:	22 bb       	out	0x12, r18	; 18
    11cc:	3b bb       	out	0x1b, r19	; 27
    11ce:	b5 bb       	out	0x15, r27	; 21
    11d0:	a5 bb       	out	0x15, r26	; 21
	PLOT_MONO_PIXEL r0,0
    11d2:	00 fa       	bst	r0, 0
    11d4:	1e f4       	brtc	.+6      	; 0x11dc <FB1BIT_LOOP+0x8a>
    11d6:	42 bb       	out	0x12, r20	; 18
    11d8:	5b bb       	out	0x1b, r21	; 27
    11da:	02 c0       	rjmp	.+4      	; 0x11e0 <FB1BIT_LOOP+0x8e>
    11dc:	22 bb       	out	0x12, r18	; 18
    11de:	3b bb       	out	0x1b, r19	; 27
    11e0:	b5 bb       	out	0x15, r27	; 21
    11e2:	a5 bb       	out	0x15, r26	; 21

	SUB16 r24,r25,1
    11e4:	81 50       	subi	r24, 0x01	; 1
    11e6:	90 40       	sbci	r25, 0x00	; 0

	cpi r24,0
    11e8:	80 30       	cpi	r24, 0x00	; 0
	cpc r25,r1
    11ea:	91 05       	cpc	r25, r1
	breq FB1BIT_DONE
    11ec:	11 f0       	breq	.+4      	; 0x11f2 <FB1BIT_DONE>
	jmp FB1BIT_LOOP
    11ee:	0c 94 a9 08 	jmp	0x1152	; 0x1152 <FB1BIT_LOOP>

000011f2 <FB1BIT_DONE>:


FB1BIT_DONE:

	ret;
    11f2:	08 95       	ret

000011f4 <fastbitmap_16bit>:
		r24:r25 lenght in pixels/words
		r22:r23 pointer to data
	*/

	/* this block sets up the TOGGLE_WR_FAST registers r30:r31 */
	in r26, _SFR_IO_ADDR(WR_PORT)
    11f4:	a5 b3       	in	r26, 0x15	; 21
	mov r27, r26
    11f6:	ba 2f       	mov	r27, r26
	set
    11f8:	68 94       	set
	bld r26,WR_PIN
    11fa:	a6 f9       	bld	r26, 6
	clt
    11fc:	e8 94       	clt
	bld r27,WR_PIN
    11fe:	b6 f9       	bld	r27, 6
	
	movw r30, r22
    1200:	fb 01       	movw	r30, r22

00001202 <FB16BIT_LOOP>:

FB16BIT_LOOP:

	
	LPM r0, Z+	
    1202:	05 90       	lpm	r0, Z+
	out DPHIO, r0	
    1204:	0b ba       	out	0x1b, r0	; 27
	LPM r0, Z+	
    1206:	05 90       	lpm	r0, Z+
	out DPLIO, r0
    1208:	02 ba       	out	0x12, r0	; 18

	TOGGLE_WR_FAST r27,r26	// place a pixel!
    120a:	b5 bb       	out	0x15, r27	; 21
    120c:	a5 bb       	out	0x15, r26	; 21

	SUB16 r24,r25,1
    120e:	81 50       	subi	r24, 0x01	; 1
    1210:	90 40       	sbci	r25, 0x00	; 0

	cpi r24,0
    1212:	80 30       	cpi	r24, 0x00	; 0
	cpc r25,r1
    1214:	91 05       	cpc	r25, r1
	breq FB16BIT_DONE
    1216:	11 f0       	breq	.+4      	; 0x121c <FB16BIT_DONE>
	jmp FB16BIT_LOOP
    1218:	0c 94 01 09 	jmp	0x1202	; 0x1202 <FB16BIT_LOOP>

0000121c <FB16BIT_DONE>:


FB16BIT_DONE:

	ret;
    121c:	08 95       	ret

0000121e <fastbitmap_pb565>:
		r24:r25 data
		
	*/

	/* this block sets up the TOGGLE_WR_FAST registers r30:r31 */
	in r26, _SFR_IO_ADDR(WR_PORT)
    121e:	a5 b3       	in	r26, 0x15	; 21
	mov r27, r26
    1220:	ba 2f       	mov	r27, r26
	set
    1222:	68 94       	set
	bld r26,WR_PIN
    1224:	a6 f9       	bld	r26, 6
	clt
    1226:	e8 94       	clt
	bld r27,WR_PIN
    1228:	b6 f9       	bld	r27, 6
	
	movw r30, r24
    122a:	fc 01       	movw	r30, r24

	clr r1
    122c:	11 24       	eor	r1, r1

0000122e <PB565BIT_LOOP>:

PB565BIT_LOOP:
	
	LPM r18, Z+	
    122e:	25 91       	lpm	r18, Z+
	cpi r18,0
    1230:	20 30       	cpi	r18, 0x00	; 0
	breq PB565BIT_DONE
    1232:	a9 f0       	breq	.+42     	; 0x125e <PB565BIT_DONE>
	
	bst r18,7
    1234:	27 fb       	bst	r18, 7
	brtc PB565PLAIN
    1236:	56 f4       	brtc	.+20     	; 0x124c <PB565PLAIN>
	
	// compressed loop.
	andi r18,0x7F
    1238:	2f 77       	andi	r18, 0x7F	; 127
	LPM r0, Z+
    123a:	05 90       	lpm	r0, Z+
	out DPHIO, r0
    123c:	0b ba       	out	0x1b, r0	; 27
	LPM r0, Z+
    123e:	05 90       	lpm	r0, Z+
	out DPLIO, r0
    1240:	02 ba       	out	0x12, r0	; 18

00001242 <PB565COMPRESSED>:
	

PB565COMPRESSED:
	TOGGLE_WR_FAST r27,r26
    1242:	b5 bb       	out	0x15, r27	; 21
    1244:	a5 bb       	out	0x15, r26	; 21
	dec r18
    1246:	2a 95       	dec	r18
	brne PB565COMPRESSED
    1248:	e1 f7       	brne	.-8      	; 0x1242 <PB565COMPRESSED>
	rjmp PB565BIT_LOOP
    124a:	f1 cf       	rjmp	.-30     	; 0x122e <PB565BIT_LOOP>

0000124c <PB565PLAIN>:


PB565PLAIN:

	LPM r0, Z+
    124c:	05 90       	lpm	r0, Z+
	out DPHIO, r0
    124e:	0b ba       	out	0x1b, r0	; 27
	LPM r0, Z+
    1250:	05 90       	lpm	r0, Z+
	out DPLIO, r0
    1252:	02 ba       	out	0x12, r0	; 18
	TOGGLE_WR_FAST r27,r26
    1254:	b5 bb       	out	0x15, r27	; 21
    1256:	a5 bb       	out	0x15, r26	; 21
	dec r18
    1258:	2a 95       	dec	r18
	brne PB565PLAIN
    125a:	c1 f7       	brne	.-16     	; 0x124c <PB565PLAIN>
	rjmp PB565BIT_LOOP
    125c:	e8 cf       	rjmp	.-48     	; 0x122e <PB565BIT_LOOP>

0000125e <PB565BIT_DONE>:




PB565BIT_DONE:
	clr r0
    125e:	00 24       	eor	r0, r0
    1260:	08 95       	ret

00001262 <fastfill>:
// r22-r25 unsigned 32 bit number of pixels to set.
// note that only 17 bits of this are used, so max pixels
// is 131071, which is fine since we only have 320 * 240 pixels or 76800 loops
fastfill:

	clr r18
    1262:	22 27       	eor	r18, r18

	// devide by 2
	// no need for register 25 it has no bits we care about.
	lsr r24
    1264:	86 95       	lsr	r24
	ror r23
    1266:	77 95       	ror	r23
	ror r22
    1268:	67 95       	ror	r22
	ror r18 // take carry onto r18 (modulus)
    126a:	27 95       	ror	r18

	// devide by 4
	// no need for register 24, it had a max of 1 bit we care about.
	lsr r23
    126c:	76 95       	lsr	r23
	ror r22
    126e:	67 95       	ror	r22
	ror r18 // take carry onto r18 (modulus)
    1270:	27 95       	ror	r18

	// devide by 8
	//lsr r24
	lsr r23
    1272:	76 95       	lsr	r23
	ror r22
    1274:	67 95       	ror	r22
	ror r18 // take carry onto r18 (modulus)
    1276:	27 95       	ror	r18

	// devide by 16		
	// lsr r24
	lsr r23
    1278:	76 95       	lsr	r23
	ror r22
    127a:	67 95       	ror	r22
	ror r18 // take carry onto r18 (modulus)
    127c:	27 95       	ror	r18

	// finish rolling a full 8 bits aka swap nibbles
	swap r18
    127e:	22 95       	swap	r18

	movw r24, r22
    1280:	cb 01       	movw	r24, r22

00001282 <fastfill2>:
// r24 + r25 hold 16 bit unsigned number of 16xloops.
// r18 holds 8 bit unsigned numner of single loops
fastfill2:

	// prepare the out port registers
	in r30, _SFR_IO_ADDR(WR_PORT)
    1282:	e5 b3       	in	r30, 0x15	; 21
	mov r31, r30
    1284:	fe 2f       	mov	r31, r30
	set
    1286:	68 94       	set
	bld r30,WR_PIN
    1288:	e6 f9       	bld	r30, 6
	clt
    128a:	e8 94       	clt
	bld r31,WR_PIN
    128c:	f6 f9       	bld	r31, 6

	sbiw r24,0 // subtract zero and test if zero	
    128e:	00 97       	sbiw	r24, 0x00	; 0
	breq exitloop16
    1290:	11 f1       	breq	.+68     	; 0x12d6 <exitloop16>

00001292 <loop16>:
loop16:
		
	TOGGLE_WR_FAST r31,r30
    1292:	f5 bb       	out	0x15, r31	; 21
    1294:	e5 bb       	out	0x15, r30	; 21
	TOGGLE_WR_FAST r31,r30
    1296:	f5 bb       	out	0x15, r31	; 21
    1298:	e5 bb       	out	0x15, r30	; 21
	TOGGLE_WR_FAST r31,r30
    129a:	f5 bb       	out	0x15, r31	; 21
    129c:	e5 bb       	out	0x15, r30	; 21
	TOGGLE_WR_FAST r31,r30
    129e:	f5 bb       	out	0x15, r31	; 21
    12a0:	e5 bb       	out	0x15, r30	; 21
		
	TOGGLE_WR_FAST r31,r30
    12a2:	f5 bb       	out	0x15, r31	; 21
    12a4:	e5 bb       	out	0x15, r30	; 21
	TOGGLE_WR_FAST r31,r30
    12a6:	f5 bb       	out	0x15, r31	; 21
    12a8:	e5 bb       	out	0x15, r30	; 21
	TOGGLE_WR_FAST r31,r30
    12aa:	f5 bb       	out	0x15, r31	; 21
    12ac:	e5 bb       	out	0x15, r30	; 21
	TOGGLE_WR_FAST r31,r30
    12ae:	f5 bb       	out	0x15, r31	; 21
    12b0:	e5 bb       	out	0x15, r30	; 21
		
	TOGGLE_WR_FAST r31,r30
    12b2:	f5 bb       	out	0x15, r31	; 21
    12b4:	e5 bb       	out	0x15, r30	; 21
	TOGGLE_WR_FAST r31,r30
    12b6:	f5 bb       	out	0x15, r31	; 21
    12b8:	e5 bb       	out	0x15, r30	; 21
	TOGGLE_WR_FAST r31,r30
    12ba:	f5 bb       	out	0x15, r31	; 21
    12bc:	e5 bb       	out	0x15, r30	; 21
	TOGGLE_WR_FAST r31,r30
    12be:	f5 bb       	out	0x15, r31	; 21
    12c0:	e5 bb       	out	0x15, r30	; 21
		
	TOGGLE_WR_FAST r31,r30
    12c2:	f5 bb       	out	0x15, r31	; 21
    12c4:	e5 bb       	out	0x15, r30	; 21
	TOGGLE_WR_FAST r31,r30
    12c6:	f5 bb       	out	0x15, r31	; 21
    12c8:	e5 bb       	out	0x15, r30	; 21
	TOGGLE_WR_FAST r31,r30
    12ca:	f5 bb       	out	0x15, r31	; 21
    12cc:	e5 bb       	out	0x15, r30	; 21
	TOGGLE_WR_FAST r31,r30
    12ce:	f5 bb       	out	0x15, r31	; 21
    12d0:	e5 bb       	out	0x15, r30	; 21

	sbiw r24,1	
    12d2:	01 97       	sbiw	r24, 0x01	; 1
	brne loop16
    12d4:	f1 f6       	brne	.-68     	; 0x1292 <loop16>

000012d6 <exitloop16>:

exitloop16:

	cpi r18,0
    12d6:	20 30       	cpi	r18, 0x00	; 0
	breq exitsingleloop
    12d8:	21 f0       	breq	.+8      	; 0x12e2 <exitsingleloop>

000012da <singleloop>:
singleloop:			
	TOGGLE_WR_FAST r31,r30
    12da:	f5 bb       	out	0x15, r31	; 21
    12dc:	e5 bb       	out	0x15, r30	; 21
	dec r18
    12de:	2a 95       	dec	r18
	brne singleloop
    12e0:	e1 f7       	brne	.-8      	; 0x12da <singleloop>

000012e2 <exitsingleloop>:

exitsingleloop:
	ret 
    12e2:	08 95       	ret

000012e4 <fastfill3>:

// r22-r25 unsigned 32 bit number of pixels to set.
// note that only 17 bits of this are used, so max pixels
// is 131071, which is fine since we only have 320 * 240 pixels or 76800 loops
fastfill3:
	TOGGLE_WR
    12e4:	ae 98       	cbi	0x15, 6	; 21
    12e6:	ae 9a       	sbi	0x15, 6	; 21
	SUB32 r22,r23,r24,r25,1
    12e8:	61 50       	subi	r22, 0x01	; 1
    12ea:	70 40       	sbci	r23, 0x00	; 0
    12ec:	80 40       	sbci	r24, 0x00	; 0
    12ee:	90 40       	sbci	r25, 0x00	; 0
	brne fastfill3
    12f0:	c9 f7       	brne	.-14     	; 0x12e4 <fastfill3>

    12f2:	08 95       	ret

000012f4 <LCD_Write_COM>:
#include "as_macros.h"


.global LCD_Write_COM
LCD_Write_COM:
	BUS_START_REG
    12f4:	af 98       	cbi	0x15, 7	; 21
	clr r1
    12f6:	11 24       	eor	r1, r1
	out DPLIO, r24
    12f8:	82 bb       	out	0x12, r24	; 18
	out DPHIO, r1
    12fa:	1b ba       	out	0x1b, r1	; 27
	TOGGLE_WR
    12fc:	ae 98       	cbi	0x15, 6	; 21
    12fe:	ae 9a       	sbi	0x15, 6	; 21
	ret
    1300:	08 95       	ret

00001302 <LCD_Write_DATA>:

.global LCD_Write_DATA
LCD_Write_DATA:
	BUS_START_DATA	
    1302:	af 9a       	sbi	0x15, 7	; 21
	out DPLIO, r22
    1304:	62 bb       	out	0x12, r22	; 18
	out DPHIO, r24
    1306:	8b bb       	out	0x1b, r24	; 27
	TOGGLE_WR
    1308:	ae 98       	cbi	0x15, 6	; 21
    130a:	ae 9a       	sbi	0x15, 6	; 21
	ret
    130c:	08 95       	ret

0000130e <LCD_Write_DATA2>:

.global LCD_Write_DATA2
LCD_Write_DATA2:
	BUS_START_DATA	
    130e:	af 9a       	sbi	0x15, 7	; 21
	clr r1
    1310:	11 24       	eor	r1, r1
	out DPLIO, r24
    1312:	82 bb       	out	0x12, r24	; 18
	out DPHIO, r1
    1314:	1b ba       	out	0x1b, r1	; 27
	TOGGLE_WR
    1316:	ae 98       	cbi	0x15, 6	; 21
    1318:	ae 9a       	sbi	0x15, 6	; 21
	ret
    131a:	08 95       	ret

0000131c <LCD_Write_COM_DATA>:


.global LCD_Write_COM_DATA
LCD_Write_COM_DATA:
	
	BUS_START_REG
    131c:	af 98       	cbi	0x15, 7	; 21
	clr r1
    131e:	11 24       	eor	r1, r1
	out DPLIO, r24
    1320:	82 bb       	out	0x12, r24	; 18
	out DPHIO, r1
    1322:	1b ba       	out	0x1b, r1	; 27
	TOGGLE_WR
    1324:	ae 98       	cbi	0x15, 6	; 21
    1326:	ae 9a       	sbi	0x15, 6	; 21

	BUS_START_DATA	
    1328:	af 9a       	sbi	0x15, 7	; 21
	out DPLIO, r22
    132a:	62 bb       	out	0x12, r22	; 18
	out DPHIO, r23
    132c:	7b bb       	out	0x1b, r23	; 27
	TOGGLE_WR
    132e:	ae 98       	cbi	0x15, 6	; 21
    1330:	ae 9a       	sbi	0x15, 6	; 21

	ret
    1332:	08 95       	ret

00001334 <LCD_Writ_Bus>:


.global LCD_Writ_Bus
	LCD_Writ_Bus:

	out DPHIO, r24
    1334:	8b bb       	out	0x1b, r24	; 27
	out DPLIO, r22
    1336:	62 bb       	out	0x12, r22	; 18
	TOGGLE_WR
    1338:	ae 98       	cbi	0x15, 6	; 21
    133a:	ae 9a       	sbi	0x15, 6	; 21

    133c:	08 95       	ret

0000133e <_Z41__static_initialization_and_destruction_0ii>:
			menu = 1;
		} else if (menu == 1) {
			memoryGame();  //pokreni igru
		}
	}
}
    133e:	01 97       	sbiw	r24, 0x01	; 1
    1340:	39 f4       	brne	.+14     	; 0x1350 <_Z41__static_initialization_and_destruction_0ii+0x12>
    1342:	6f 3f       	cpi	r22, 0xFF	; 255
    1344:	7f 4f       	sbci	r23, 0xFF	; 255
    1346:	21 f4       	brne	.+8      	; 0x1350 <_Z41__static_initialization_and_destruction_0ii+0x12>
#define CHALLENGE_LENGTH 30               // koliko rundi do pobjede, default 30
#define CHALLENGE_MOVES 45                // koliko poteza mozemo napraviti do gubljenja igre u prvoj rundi, default 45
#define CHALLENGE_TIME 120                // koliko vremena imamo za pobijediti level u prvoj rundi, default 120
#define CHALLENGE_STEP 3                  // za koliko sekundi se smanji vrijeme po rundi

UTFT display;
    1348:	8c e6       	ldi	r24, 0x6C	; 108
    134a:	91 e0       	ldi	r25, 0x01	; 1
    134c:	0e 94 26 14 	call	0x284c	; 0x284c <_ZN4UTFTC1Ev>
    1350:	08 95       	ret

00001352 <_Z7Touchedv>:

bool Touched() {
	// PINB3(T-IRQ) nizak pri dodiru
	if (bit_is_clear(PINB, T_IRQ)){
    1352:	b3 99       	sbic	0x16, 3	; 22
    1354:	02 c0       	rjmp	.+4      	; 0x135a <_Z7Touchedv+0x8>
		return true;
    1356:	81 e0       	ldi	r24, 0x01	; 1
    1358:	08 95       	ret
		} else {
		return false;
    135a:	80 e0       	ldi	r24, 0x00	; 0
	}
}
    135c:	08 95       	ret

0000135e <_Z4getXv>:

uint16_t getX() {
    135e:	cf 92       	push	r12
    1360:	df 92       	push	r13
    1362:	ef 92       	push	r14
    1364:	ff 92       	push	r15
	SPI_Write(0X90);
    1366:	80 e9       	ldi	r24, 0x90	; 144
    1368:	0e 94 0e 13 	call	0x261c	; 0x261c <SPI_Write>
	float x = SPI_Read() / 120.0 * 320 - 15;
    136c:	0e 94 13 13 	call	0x2626	; 0x2626 <SPI_Read>
    1370:	68 2f       	mov	r22, r24
    1372:	70 e0       	ldi	r23, 0x00	; 0
    1374:	80 e0       	ldi	r24, 0x00	; 0
    1376:	90 e0       	ldi	r25, 0x00	; 0
    1378:	0e 94 a8 1b 	call	0x3750	; 0x3750 <__floatsisf>
    137c:	20 e0       	ldi	r18, 0x00	; 0
    137e:	30 e0       	ldi	r19, 0x00	; 0
    1380:	40 ef       	ldi	r20, 0xF0	; 240
    1382:	52 e4       	ldi	r21, 0x42	; 66
    1384:	0e 94 fe 1a 	call	0x35fc	; 0x35fc <__divsf3>
    1388:	20 e0       	ldi	r18, 0x00	; 0
    138a:	30 e0       	ldi	r19, 0x00	; 0
    138c:	40 ea       	ldi	r20, 0xA0	; 160
    138e:	53 e4       	ldi	r21, 0x43	; 67
    1390:	0e 94 97 1c 	call	0x392e	; 0x392e <__mulsf3>
    1394:	20 e0       	ldi	r18, 0x00	; 0
    1396:	30 e0       	ldi	r19, 0x00	; 0
    1398:	40 e7       	ldi	r20, 0x70	; 112
    139a:	51 e4       	ldi	r21, 0x41	; 65
    139c:	0e 94 87 1a 	call	0x350e	; 0x350e <__subsf3>
    13a0:	6b 01       	movw	r12, r22
    13a2:	7c 01       	movw	r14, r24
	SPI_Write(0);
    13a4:	80 e0       	ldi	r24, 0x00	; 0
    13a6:	0e 94 0e 13 	call	0x261c	; 0x261c <SPI_Write>
	#else
		//round up by default
		__ticks_dc = (uint32_t)(ceil(fabs(__tmp)));
	#endif

	__builtin_avr_delay_cycles(__ticks_dc);
    13aa:	8f ef       	ldi	r24, 0xFF	; 255
    13ac:	97 e4       	ldi	r25, 0x47	; 71
    13ae:	01 97       	sbiw	r24, 0x01	; 1
    13b0:	f1 f7       	brne	.-4      	; 0x13ae <_Z4getXv+0x50>
    13b2:	00 c0       	rjmp	.+0      	; 0x13b4 <_Z4getXv+0x56>
    13b4:	00 00       	nop
	_delay_ms(10);
	return (uint16_t) x;
    13b6:	c7 01       	movw	r24, r14
    13b8:	b6 01       	movw	r22, r12
    13ba:	0e 94 77 1b 	call	0x36ee	; 0x36ee <__fixunssfsi>
}
    13be:	cb 01       	movw	r24, r22
    13c0:	ff 90       	pop	r15
    13c2:	ef 90       	pop	r14
    13c4:	df 90       	pop	r13
    13c6:	cf 90       	pop	r12
    13c8:	08 95       	ret

000013ca <_Z4getYv>:

uint16_t getY() {
    13ca:	cf 92       	push	r12
    13cc:	df 92       	push	r13
    13ce:	ef 92       	push	r14
    13d0:	ff 92       	push	r15
	float y = 0;
    13d2:	c1 2c       	mov	r12, r1
    13d4:	d1 2c       	mov	r13, r1
    13d6:	76 01       	movw	r14, r12
	while(y <= 0 ){
    13d8:	20 e0       	ldi	r18, 0x00	; 0
    13da:	30 e0       	ldi	r19, 0x00	; 0
    13dc:	a9 01       	movw	r20, r18
    13de:	c7 01       	movw	r24, r14
    13e0:	b6 01       	movw	r22, r12
    13e2:	0e 94 f4 1a 	call	0x35e8	; 0x35e8 <__cmpsf2>
    13e6:	18 16       	cp	r1, r24
    13e8:	ec f0       	brlt	.+58     	; 0x1424 <_Z4getYv+0x5a>
		SPI_Write(0XD0);
    13ea:	80 ed       	ldi	r24, 0xD0	; 208
    13ec:	0e 94 0e 13 	call	0x261c	; 0x261c <SPI_Write>
		y = SPI_Read() / 120.0 * 240;
    13f0:	0e 94 13 13 	call	0x2626	; 0x2626 <SPI_Read>
    13f4:	68 2f       	mov	r22, r24
    13f6:	70 e0       	ldi	r23, 0x00	; 0
    13f8:	80 e0       	ldi	r24, 0x00	; 0
    13fa:	90 e0       	ldi	r25, 0x00	; 0
    13fc:	0e 94 a8 1b 	call	0x3750	; 0x3750 <__floatsisf>
    1400:	20 e0       	ldi	r18, 0x00	; 0
    1402:	30 e0       	ldi	r19, 0x00	; 0
    1404:	40 ef       	ldi	r20, 0xF0	; 240
    1406:	52 e4       	ldi	r21, 0x42	; 66
    1408:	0e 94 fe 1a 	call	0x35fc	; 0x35fc <__divsf3>
    140c:	20 e0       	ldi	r18, 0x00	; 0
    140e:	30 e0       	ldi	r19, 0x00	; 0
    1410:	40 e7       	ldi	r20, 0x70	; 112
    1412:	53 e4       	ldi	r21, 0x43	; 67
    1414:	0e 94 97 1c 	call	0x392e	; 0x392e <__mulsf3>
    1418:	6b 01       	movw	r12, r22
    141a:	7c 01       	movw	r14, r24
		SPI_Write(0);
    141c:	80 e0       	ldi	r24, 0x00	; 0
    141e:	0e 94 0e 13 	call	0x261c	; 0x261c <SPI_Write>
	return (uint16_t) x;
}

uint16_t getY() {
	float y = 0;
	while(y <= 0 ){
    1422:	da cf       	rjmp	.-76     	; 0x13d8 <_Z4getYv+0xe>
    1424:	8f ef       	ldi	r24, 0xFF	; 255
    1426:	97 e4       	ldi	r25, 0x47	; 71
    1428:	01 97       	sbiw	r24, 0x01	; 1
    142a:	f1 f7       	brne	.-4      	; 0x1428 <_Z4getYv+0x5e>
    142c:	00 c0       	rjmp	.+0      	; 0x142e <_Z4getYv+0x64>
    142e:	00 00       	nop
		SPI_Write(0XD0);
		y = SPI_Read() / 120.0 * 240;
		SPI_Write(0);
	}
	_delay_ms(10);
	return (uint16_t) y;
    1430:	c7 01       	movw	r24, r14
    1432:	b6 01       	movw	r22, r12
    1434:	0e 94 77 1b 	call	0x36ee	; 0x36ee <__fixunssfsi>
}
    1438:	cb 01       	movw	r24, r22
    143a:	ff 90       	pop	r15
    143c:	ef 90       	pop	r14
    143e:	df 90       	pop	r13
    1440:	cf 90       	pop	r12
    1442:	08 95       	ret

00001444 <_Z9printTimev>:
uint8_t challengeTime = CHALLENGE_TIME;   // koliko vremena imamo po rundi, pocinjemo s max postavljenim u CHALLENGE_TIME i smanjujemo za CHALLENGE_STEP
uint8_t challengeEndFlag = 0;             // ako smo u izazovnoj igri, provjerava kako je zavrsila: 0 - jos traje, 1 - pobjeda, 2 - ostali smo bez poteza, 3 - isteklo vrijeme


// ispisi vrijeme na ekran za vrijeme igre, u opustenom naciju se ispisuje proteklo vrijeme a u izazovnom preostalo
void printTime() {
    1444:	af 92       	push	r10
    1446:	bf 92       	push	r11
    1448:	cf 92       	push	r12
    144a:	ef 92       	push	r14
    144c:	ff 92       	push	r15
    144e:	0f 93       	push	r16
    1450:	1f 93       	push	r17
    1452:	cf 93       	push	r28
    1454:	df 93       	push	r29
	//ovaj dio sluzi za brisanje prijasnjeg ispisa
	display.setColor(0, 0, 0);
    1456:	20 e0       	ldi	r18, 0x00	; 0
    1458:	40 e0       	ldi	r20, 0x00	; 0
    145a:	60 e0       	ldi	r22, 0x00	; 0
    145c:	8c e6       	ldi	r24, 0x6C	; 108
    145e:	91 e0       	ldi	r25, 0x01	; 1
    1460:	0e 94 16 15 	call	0x2a2c	; 0x2a2c <_ZN4UTFT8setColorEhhh>
	display.fillRect(0,159,45,200);
    1464:	08 ec       	ldi	r16, 0xC8	; 200
    1466:	10 e0       	ldi	r17, 0x00	; 0
    1468:	2d e2       	ldi	r18, 0x2D	; 45
    146a:	30 e0       	ldi	r19, 0x00	; 0
    146c:	4f e9       	ldi	r20, 0x9F	; 159
    146e:	50 e0       	ldi	r21, 0x00	; 0
    1470:	60 e0       	ldi	r22, 0x00	; 0
    1472:	70 e0       	ldi	r23, 0x00	; 0
    1474:	8c e6       	ldi	r24, 0x6C	; 108
    1476:	91 e0       	ldi	r25, 0x01	; 1
    1478:	0e 94 80 14 	call	0x2900	; 0x2900 <_ZN4UTFT8fillRectEiiii>
	display.setColor(255, 255, 255);
    147c:	2f ef       	ldi	r18, 0xFF	; 255
    147e:	4f ef       	ldi	r20, 0xFF	; 255
    1480:	6f ef       	ldi	r22, 0xFF	; 255
    1482:	8c e6       	ldi	r24, 0x6C	; 108
    1484:	91 e0       	ldi	r25, 0x01	; 1
    1486:	0e 94 16 15 	call	0x2a2c	; 0x2a2c <_ZN4UTFT8setColorEhhh>
	
	if (challengeMode) {
    148a:	80 91 3f 01 	lds	r24, 0x013F	; 0x80013f <challengeMode>
    148e:	88 23       	and	r24, r24
    1490:	09 f4       	brne	.+2      	; 0x1494 <_Z9printTimev+0x50>
    1492:	52 c0       	rjmp	.+164    	; 0x1538 <_Z9printTimev+0xf4>
		display.printNumI((challengeTime - currentTime[1]) / 60, 0, 160);
    1494:	0f 2e       	mov	r0, r31
    1496:	f4 e4       	ldi	r31, 0x44	; 68
    1498:	af 2e       	mov	r10, r31
    149a:	f1 e0       	ldi	r31, 0x01	; 1
    149c:	bf 2e       	mov	r11, r31
    149e:	f0 2d       	mov	r31, r0
    14a0:	f5 01       	movw	r30, r10
    14a2:	21 81       	ldd	r18, Z+1	; 0x01
    14a4:	80 91 64 00 	lds	r24, 0x0064	; 0x800064 <challengeTime>
    14a8:	90 e0       	ldi	r25, 0x00	; 0
    14aa:	82 1b       	sub	r24, r18
    14ac:	91 09       	sbc	r25, r1
    14ae:	cc e3       	ldi	r28, 0x3C	; 60
    14b0:	d0 e0       	ldi	r29, 0x00	; 0
    14b2:	be 01       	movw	r22, r28
    14b4:	0e 94 65 1d 	call	0x3aca	; 0x3aca <__divmodhi4>
    14b8:	ab 01       	movw	r20, r22
    14ba:	77 0f       	add	r23, r23
    14bc:	66 0b       	sbc	r22, r22
    14be:	77 0b       	sbc	r23, r23
    14c0:	68 94       	set
    14c2:	cc 24       	eor	r12, r12
    14c4:	c5 f8       	bld	r12, 5
    14c6:	e1 2c       	mov	r14, r1
    14c8:	f1 2c       	mov	r15, r1
    14ca:	00 ea       	ldi	r16, 0xA0	; 160
    14cc:	10 e0       	ldi	r17, 0x00	; 0
    14ce:	20 e0       	ldi	r18, 0x00	; 0
    14d0:	30 e0       	ldi	r19, 0x00	; 0
    14d2:	8c e6       	ldi	r24, 0x6C	; 108
    14d4:	91 e0       	ldi	r25, 0x01	; 1
    14d6:	0e 94 64 19 	call	0x32c8	; 0x32c8 <_ZN4UTFT9printNumIEliiic>
		display.print("m", 30, 160);
    14da:	00 e0       	ldi	r16, 0x00	; 0
    14dc:	10 e0       	ldi	r17, 0x00	; 0
    14de:	20 ea       	ldi	r18, 0xA0	; 160
    14e0:	30 e0       	ldi	r19, 0x00	; 0
    14e2:	4e e1       	ldi	r20, 0x1E	; 30
    14e4:	50 e0       	ldi	r21, 0x00	; 0
    14e6:	6a e6       	ldi	r22, 0x6A	; 106
    14e8:	70 e0       	ldi	r23, 0x00	; 0
    14ea:	8c e6       	ldi	r24, 0x6C	; 108
    14ec:	91 e0       	ldi	r25, 0x01	; 1
    14ee:	0e 94 89 18 	call	0x3112	; 0x3112 <_ZN4UTFT5printEPKciii>
		display.printNumI((challengeTime - currentTime[1]) % 60, 0, 180);
    14f2:	f5 01       	movw	r30, r10
    14f4:	21 81       	ldd	r18, Z+1	; 0x01
    14f6:	80 91 64 00 	lds	r24, 0x0064	; 0x800064 <challengeTime>
    14fa:	90 e0       	ldi	r25, 0x00	; 0
    14fc:	82 1b       	sub	r24, r18
    14fe:	91 09       	sbc	r25, r1
    1500:	be 01       	movw	r22, r28
    1502:	0e 94 65 1d 	call	0x3aca	; 0x3aca <__divmodhi4>
    1506:	ac 01       	movw	r20, r24
    1508:	99 0f       	add	r25, r25
    150a:	66 0b       	sbc	r22, r22
    150c:	77 0b       	sbc	r23, r23
    150e:	04 eb       	ldi	r16, 0xB4	; 180
    1510:	10 e0       	ldi	r17, 0x00	; 0
    1512:	20 e0       	ldi	r18, 0x00	; 0
    1514:	30 e0       	ldi	r19, 0x00	; 0
    1516:	8c e6       	ldi	r24, 0x6C	; 108
    1518:	91 e0       	ldi	r25, 0x01	; 1
    151a:	0e 94 64 19 	call	0x32c8	; 0x32c8 <_ZN4UTFT9printNumIEliiic>
		display.print("s", 30, 180);
    151e:	00 e0       	ldi	r16, 0x00	; 0
    1520:	10 e0       	ldi	r17, 0x00	; 0
    1522:	24 eb       	ldi	r18, 0xB4	; 180
    1524:	30 e0       	ldi	r19, 0x00	; 0
    1526:	4e e1       	ldi	r20, 0x1E	; 30
    1528:	50 e0       	ldi	r21, 0x00	; 0
    152a:	62 e7       	ldi	r22, 0x72	; 114
    152c:	70 e0       	ldi	r23, 0x00	; 0
    152e:	8c e6       	ldi	r24, 0x6C	; 108
    1530:	91 e0       	ldi	r25, 0x01	; 1
    1532:	0e 94 89 18 	call	0x3112	; 0x3112 <_ZN4UTFT5printEPKciii>
    1536:	37 c0       	rjmp	.+110    	; 0x15a6 <_Z9printTimev+0x162>
	} else {
		display.printNumI(currentTime[0], 0, 160);
    1538:	c4 e4       	ldi	r28, 0x44	; 68
    153a:	d1 e0       	ldi	r29, 0x01	; 1
    153c:	48 81       	ld	r20, Y
    153e:	50 e0       	ldi	r21, 0x00	; 0
    1540:	60 e0       	ldi	r22, 0x00	; 0
    1542:	70 e0       	ldi	r23, 0x00	; 0
    1544:	68 94       	set
    1546:	cc 24       	eor	r12, r12
    1548:	c5 f8       	bld	r12, 5
    154a:	e1 2c       	mov	r14, r1
    154c:	f1 2c       	mov	r15, r1
    154e:	00 ea       	ldi	r16, 0xA0	; 160
    1550:	10 e0       	ldi	r17, 0x00	; 0
    1552:	20 e0       	ldi	r18, 0x00	; 0
    1554:	30 e0       	ldi	r19, 0x00	; 0
    1556:	8c e6       	ldi	r24, 0x6C	; 108
    1558:	91 e0       	ldi	r25, 0x01	; 1
    155a:	0e 94 64 19 	call	0x32c8	; 0x32c8 <_ZN4UTFT9printNumIEliiic>
		display.print("m", 30, 160);
    155e:	00 e0       	ldi	r16, 0x00	; 0
    1560:	10 e0       	ldi	r17, 0x00	; 0
    1562:	20 ea       	ldi	r18, 0xA0	; 160
    1564:	30 e0       	ldi	r19, 0x00	; 0
    1566:	4e e1       	ldi	r20, 0x1E	; 30
    1568:	50 e0       	ldi	r21, 0x00	; 0
    156a:	6a e6       	ldi	r22, 0x6A	; 106
    156c:	70 e0       	ldi	r23, 0x00	; 0
    156e:	8c e6       	ldi	r24, 0x6C	; 108
    1570:	91 e0       	ldi	r25, 0x01	; 1
    1572:	0e 94 89 18 	call	0x3112	; 0x3112 <_ZN4UTFT5printEPKciii>
		display.printNumI(currentTime[1], 0, 180);
    1576:	49 81       	ldd	r20, Y+1	; 0x01
    1578:	50 e0       	ldi	r21, 0x00	; 0
    157a:	60 e0       	ldi	r22, 0x00	; 0
    157c:	70 e0       	ldi	r23, 0x00	; 0
    157e:	04 eb       	ldi	r16, 0xB4	; 180
    1580:	10 e0       	ldi	r17, 0x00	; 0
    1582:	20 e0       	ldi	r18, 0x00	; 0
    1584:	30 e0       	ldi	r19, 0x00	; 0
    1586:	8c e6       	ldi	r24, 0x6C	; 108
    1588:	91 e0       	ldi	r25, 0x01	; 1
    158a:	0e 94 64 19 	call	0x32c8	; 0x32c8 <_ZN4UTFT9printNumIEliiic>
		display.print("s", 30, 180);
    158e:	00 e0       	ldi	r16, 0x00	; 0
    1590:	10 e0       	ldi	r17, 0x00	; 0
    1592:	24 eb       	ldi	r18, 0xB4	; 180
    1594:	30 e0       	ldi	r19, 0x00	; 0
    1596:	4e e1       	ldi	r20, 0x1E	; 30
    1598:	50 e0       	ldi	r21, 0x00	; 0
    159a:	62 e7       	ldi	r22, 0x72	; 114
    159c:	70 e0       	ldi	r23, 0x00	; 0
    159e:	8c e6       	ldi	r24, 0x6C	; 108
    15a0:	91 e0       	ldi	r25, 0x01	; 1
    15a2:	0e 94 89 18 	call	0x3112	; 0x3112 <_ZN4UTFT5printEPKciii>
	}
}
    15a6:	df 91       	pop	r29
    15a8:	cf 91       	pop	r28
    15aa:	1f 91       	pop	r17
    15ac:	0f 91       	pop	r16
    15ae:	ff 90       	pop	r15
    15b0:	ef 90       	pop	r14
    15b2:	cf 90       	pop	r12
    15b4:	bf 90       	pop	r11
    15b6:	af 90       	pop	r10
    15b8:	08 95       	ret

000015ba <__vector_19>:

// broji stotinke, sekunde i minute provedene u igri, aktivira zastavicu za isteklo vrijeme
ISR(TIMER0_COMP_vect) {
    15ba:	1f 92       	push	r1
    15bc:	0f 92       	push	r0
    15be:	0f b6       	in	r0, 0x3f	; 63
    15c0:	0f 92       	push	r0
    15c2:	11 24       	eor	r1, r1
    15c4:	2f 93       	push	r18
    15c6:	3f 93       	push	r19
    15c8:	4f 93       	push	r20
    15ca:	5f 93       	push	r21
    15cc:	6f 93       	push	r22
    15ce:	7f 93       	push	r23
    15d0:	8f 93       	push	r24
    15d2:	9f 93       	push	r25
    15d4:	af 93       	push	r26
    15d6:	bf 93       	push	r27
    15d8:	ef 93       	push	r30
    15da:	ff 93       	push	r31
	 //osigurava da se ne broji dok ne igramo i ako je isteklo vrijeme
	if (started && challengeEndFlag != 3) {                                     
    15dc:	80 91 43 01 	lds	r24, 0x0143	; 0x800143 <started>
    15e0:	88 23       	and	r24, r24
    15e2:	a9 f1       	breq	.+106    	; 0x164e <__vector_19+0x94>
    15e4:	80 91 3e 01 	lds	r24, 0x013E	; 0x80013e <__data_end>
    15e8:	83 30       	cpi	r24, 0x03	; 3
    15ea:	89 f1       	breq	.+98     	; 0x164e <__vector_19+0x94>
		currentTime[2]++;
    15ec:	e4 e4       	ldi	r30, 0x44	; 68
    15ee:	f1 e0       	ldi	r31, 0x01	; 1
    15f0:	82 81       	ldd	r24, Z+2	; 0x02
    15f2:	8f 5f       	subi	r24, 0xFF	; 255
    15f4:	82 83       	std	Z+2, r24	; 0x02

		if (currentTime[2] == 100) {
    15f6:	84 36       	cpi	r24, 0x64	; 100
    15f8:	91 f4       	brne	.+36     	; 0x161e <__vector_19+0x64>
			currentTime[2] = 0;
    15fa:	12 82       	std	Z+2, r1	; 0x02

			currentTime[1]++; 
    15fc:	81 81       	ldd	r24, Z+1	; 0x01
    15fe:	8f 5f       	subi	r24, 0xFF	; 255
    1600:	81 83       	std	Z+1, r24	; 0x01
			
			if (currentTime[1] == 60) {
    1602:	8c 33       	cpi	r24, 0x3C	; 60
    1604:	21 f4       	brne	.+8      	; 0x160e <__vector_19+0x54>
				currentTime[1] = 0;
    1606:	11 82       	std	Z+1, r1	; 0x01
				currentTime[0]++;
    1608:	80 81       	ld	r24, Z
    160a:	8f 5f       	subi	r24, 0xFF	; 255
    160c:	80 83       	st	Z, r24
			}
			if (currentTime[0] == 60) {
    160e:	80 91 44 01 	lds	r24, 0x0144	; 0x800144 <currentTime>
    1612:	8c 33       	cpi	r24, 0x3C	; 60
    1614:	11 f4       	brne	.+4      	; 0x161a <__vector_19+0x60>
				currentTime[0] = 0;
    1616:	10 92 44 01 	sts	0x0144, r1	; 0x800144 <currentTime>
			}
			printTime();
    161a:	0e 94 22 0a 	call	0x1444	; 0x1444 <_Z9printTimev>
		}
		
		if (challengeMode) {
    161e:	80 91 3f 01 	lds	r24, 0x013F	; 0x80013f <challengeMode>
    1622:	88 23       	and	r24, r24
    1624:	a1 f0       	breq	.+40     	; 0x164e <__vector_19+0x94>
			if ((challengeTime - (currentTime[0] * 60) - currentTime[1]) <= 0) {
    1626:	e4 e4       	ldi	r30, 0x44	; 68
    1628:	f1 e0       	ldi	r31, 0x01	; 1
    162a:	20 81       	ld	r18, Z
    162c:	80 91 64 00 	lds	r24, 0x0064	; 0x800064 <challengeTime>
    1630:	90 e0       	ldi	r25, 0x00	; 0
    1632:	3c e3       	ldi	r19, 0x3C	; 60
    1634:	23 9f       	mul	r18, r19
    1636:	80 19       	sub	r24, r0
    1638:	91 09       	sbc	r25, r1
    163a:	11 24       	eor	r1, r1
    163c:	21 81       	ldd	r18, Z+1	; 0x01
    163e:	82 1b       	sub	r24, r18
    1640:	91 09       	sbc	r25, r1
    1642:	18 16       	cp	r1, r24
    1644:	19 06       	cpc	r1, r25
    1646:	1c f0       	brlt	.+6      	; 0x164e <__vector_19+0x94>
				challengeEndFlag = 3;
    1648:	83 e0       	ldi	r24, 0x03	; 3
    164a:	80 93 3e 01 	sts	0x013E, r24	; 0x80013e <__data_end>
			}
		}
	}
}
    164e:	ff 91       	pop	r31
    1650:	ef 91       	pop	r30
    1652:	bf 91       	pop	r27
    1654:	af 91       	pop	r26
    1656:	9f 91       	pop	r25
    1658:	8f 91       	pop	r24
    165a:	7f 91       	pop	r23
    165c:	6f 91       	pop	r22
    165e:	5f 91       	pop	r21
    1660:	4f 91       	pop	r20
    1662:	3f 91       	pop	r19
    1664:	2f 91       	pop	r18
    1666:	0f 90       	pop	r0
    1668:	0f be       	out	0x3f, r0	; 63
    166a:	0f 90       	pop	r0
    166c:	1f 90       	pop	r1
    166e:	18 95       	reti

00001670 <_Z9fillBoardv>:

// popuni plocu nasumicno simbolima, koristimo obicne brojeve zbog jednostavnosti implementacije
void fillBoard() {
    1670:	cf 93       	push	r28
	uint8_t index, i;
	for (i = 0; i < 16; i++) {
    1672:	c0 e0       	ldi	r28, 0x00	; 0
    1674:	c0 31       	cpi	r28, 0x10	; 16
    1676:	08 f5       	brcc	.+66     	; 0x16ba <_Z9fillBoardv+0x4a>
		index = rand() % 16;
    1678:	0e 94 42 1e 	call	0x3c84	; 0x3c84 <rand>
    167c:	8f 70       	andi	r24, 0x0F	; 15
    167e:	90 78       	andi	r25, 0x80	; 128
    1680:	99 23       	and	r25, r25
    1682:	34 f4       	brge	.+12     	; 0x1690 <_Z9fillBoardv+0x20>
    1684:	01 97       	sbiw	r24, 0x01	; 1
    1686:	80 6f       	ori	r24, 0xF0	; 240
    1688:	9f 6f       	ori	r25, 0xFF	; 255
    168a:	01 96       	adiw	r24, 0x01	; 1
    168c:	01 c0       	rjmp	.+2      	; 0x1690 <_Z9fillBoardv+0x20>
		while(board[index] != 0) { //ako se izabere polje koje je vec popunjeno, biraj sljedece
			index++;
			if (index > 15) {
				index = 0;
    168e:	80 e0       	ldi	r24, 0x00	; 0
// popuni plocu nasumicno simbolima, koristimo obicne brojeve zbog jednostavnosti implementacije
void fillBoard() {
	uint8_t index, i;
	for (i = 0; i < 16; i++) {
		index = rand() % 16;
		while(board[index] != 0) { //ako se izabere polje koje je vec popunjeno, biraj sljedece
    1690:	28 2f       	mov	r18, r24
    1692:	30 e0       	ldi	r19, 0x00	; 0
    1694:	f9 01       	movw	r30, r18
    1696:	e4 5a       	subi	r30, 0xA4	; 164
    1698:	fe 4f       	sbci	r31, 0xFE	; 254
    169a:	90 81       	ld	r25, Z
    169c:	99 23       	and	r25, r25
    169e:	21 f0       	breq	.+8      	; 0x16a8 <_Z9fillBoardv+0x38>
			index++;
    16a0:	8f 5f       	subi	r24, 0xFF	; 255
			if (index > 15) {
    16a2:	80 31       	cpi	r24, 0x10	; 16
    16a4:	a8 f3       	brcs	.-22     	; 0x1690 <_Z9fillBoardv+0x20>
    16a6:	f3 cf       	rjmp	.-26     	; 0x168e <_Z9fillBoardv+0x1e>
				index = 0;
			}
		}
		board[index] = (i % 8) + 1;
    16a8:	f9 01       	movw	r30, r18
    16aa:	e4 5a       	subi	r30, 0xA4	; 164
    16ac:	fe 4f       	sbci	r31, 0xFE	; 254
    16ae:	8c 2f       	mov	r24, r28
    16b0:	87 70       	andi	r24, 0x07	; 7
    16b2:	8f 5f       	subi	r24, 0xFF	; 255
    16b4:	80 83       	st	Z, r24
}

// popuni plocu nasumicno simbolima, koristimo obicne brojeve zbog jednostavnosti implementacije
void fillBoard() {
	uint8_t index, i;
	for (i = 0; i < 16; i++) {
    16b6:	cf 5f       	subi	r28, 0xFF	; 255
    16b8:	dd cf       	rjmp	.-70     	; 0x1674 <_Z9fillBoardv+0x4>
				index = 0;
			}
		}
		board[index] = (i % 8) + 1;
	}
}
    16ba:	cf 91       	pop	r28
    16bc:	08 95       	ret

000016be <_Z14memoryGetInputv>:

// vraca indeks + 1 karte na koju smo kliknuli, 0 je za kad kliknemo izvan ploce
uint8_t memoryGetInput() {
    16be:	cf 93       	push	r28
    16c0:	df 93       	push	r29
	while(!Touched());
    16c2:	0e 94 a9 09 	call	0x1352	; 0x1352 <_Z7Touchedv>
    16c6:	88 23       	and	r24, r24
    16c8:	e1 f3       	breq	.-8      	; 0x16c2 <_Z14memoryGetInputv+0x4>
	uint16_t x = getX();
    16ca:	0e 94 af 09 	call	0x135e	; 0x135e <_Z4getXv>
    16ce:	ec 01       	movw	r28, r24
	uint16_t y = getY();
    16d0:	0e 94 e5 09 	call	0x13ca	; 0x13ca <_Z4getYv>
	
	if ((x > BACK_X1) && (x < BACK_X2) && (y > BACK_Y1) && (y < BACK_Y2)) return 20;
    16d4:	9e 01       	movw	r18, r28
    16d6:	21 50       	subi	r18, 0x01	; 1
    16d8:	31 09       	sbc	r19, r1
    16da:	27 32       	cpi	r18, 0x27	; 39
    16dc:	31 05       	cpc	r19, r1
    16de:	30 f4       	brcc	.+12     	; 0x16ec <_Z14memoryGetInputv+0x2e>
    16e0:	00 97       	sbiw	r24, 0x00	; 0
    16e2:	21 f0       	breq	.+8      	; 0x16ec <_Z14memoryGetInputv+0x2e>
    16e4:	88 32       	cpi	r24, 0x28	; 40
    16e6:	91 05       	cpc	r25, r1
    16e8:	08 f4       	brcc	.+2      	; 0x16ec <_Z14memoryGetInputv+0x2e>
    16ea:	a3 c0       	rjmp	.+326    	; 0x1832 <_Z14memoryGetInputv+0x174>
	else if ((x > X1_1) && (x < X2_1) && (y > Y1_1) && (y < Y2_1)) return 1;
    16ec:	9e 01       	movw	r18, r28
    16ee:	20 55       	subi	r18, 0x50	; 80
    16f0:	31 09       	sbc	r19, r1
    16f2:	27 33       	cpi	r18, 0x37	; 55
    16f4:	31 05       	cpc	r19, r1
    16f6:	30 f4       	brcc	.+12     	; 0x1704 <_Z14memoryGetInputv+0x46>
    16f8:	00 97       	sbiw	r24, 0x00	; 0
    16fa:	21 f0       	breq	.+8      	; 0x1704 <_Z14memoryGetInputv+0x46>
    16fc:	88 33       	cpi	r24, 0x38	; 56
    16fe:	91 05       	cpc	r25, r1
    1700:	08 f4       	brcc	.+2      	; 0x1704 <_Z14memoryGetInputv+0x46>
    1702:	99 c0       	rjmp	.+306    	; 0x1836 <_Z14memoryGetInputv+0x178>
	else if ((x > X1_2) && (x < X2_2) && (y > Y1_1) && (y < Y2_1)) return 2;
    1704:	ae 01       	movw	r20, r28
    1706:	4d 58       	subi	r20, 0x8D	; 141
    1708:	51 09       	sbc	r21, r1
    170a:	47 33       	cpi	r20, 0x37	; 55
    170c:	51 05       	cpc	r21, r1
    170e:	30 f4       	brcc	.+12     	; 0x171c <_Z14memoryGetInputv+0x5e>
    1710:	00 97       	sbiw	r24, 0x00	; 0
    1712:	21 f0       	breq	.+8      	; 0x171c <_Z14memoryGetInputv+0x5e>
    1714:	88 33       	cpi	r24, 0x38	; 56
    1716:	91 05       	cpc	r25, r1
    1718:	08 f4       	brcc	.+2      	; 0x171c <_Z14memoryGetInputv+0x5e>
    171a:	8f c0       	rjmp	.+286    	; 0x183a <_Z14memoryGetInputv+0x17c>
	else if ((x > X1_3) && (x < X2_3) && (y > Y1_1) && (y < Y2_1)) return 3;
    171c:	be 01       	movw	r22, r28
    171e:	6a 5c       	subi	r22, 0xCA	; 202
    1720:	71 09       	sbc	r23, r1
    1722:	67 33       	cpi	r22, 0x37	; 55
    1724:	71 05       	cpc	r23, r1
    1726:	30 f4       	brcc	.+12     	; 0x1734 <_Z14memoryGetInputv+0x76>
    1728:	00 97       	sbiw	r24, 0x00	; 0
    172a:	21 f0       	breq	.+8      	; 0x1734 <_Z14memoryGetInputv+0x76>
    172c:	88 33       	cpi	r24, 0x38	; 56
    172e:	91 05       	cpc	r25, r1
    1730:	08 f4       	brcc	.+2      	; 0x1734 <_Z14memoryGetInputv+0x76>
    1732:	85 c0       	rjmp	.+266    	; 0x183e <_Z14memoryGetInputv+0x180>
	else if ((x > X1_4) && (x < X2_4) && (y > Y1_1) && (y < Y2_1)) return 4;
    1734:	c7 50       	subi	r28, 0x07	; 7
    1736:	d1 40       	sbci	r29, 0x01	; 1
    1738:	c7 33       	cpi	r28, 0x37	; 55
    173a:	d1 05       	cpc	r29, r1
    173c:	30 f4       	brcc	.+12     	; 0x174a <_Z14memoryGetInputv+0x8c>
    173e:	00 97       	sbiw	r24, 0x00	; 0
    1740:	21 f0       	breq	.+8      	; 0x174a <_Z14memoryGetInputv+0x8c>
    1742:	88 33       	cpi	r24, 0x38	; 56
    1744:	91 05       	cpc	r25, r1
    1746:	08 f4       	brcc	.+2      	; 0x174a <_Z14memoryGetInputv+0x8c>
    1748:	7c c0       	rjmp	.+248    	; 0x1842 <_Z14memoryGetInputv+0x184>
	
	else if ((x > X1_1) && (x < X2_1) && (y > Y1_2) && (y < Y2_2)) return 5;
    174a:	27 33       	cpi	r18, 0x37	; 55
    174c:	31 05       	cpc	r19, r1
    174e:	38 f4       	brcc	.+14     	; 0x175e <_Z14memoryGetInputv+0xa0>
    1750:	8e 33       	cpi	r24, 0x3E	; 62
    1752:	91 05       	cpc	r25, r1
    1754:	20 f0       	brcs	.+8      	; 0x175e <_Z14memoryGetInputv+0xa0>
    1756:	85 37       	cpi	r24, 0x75	; 117
    1758:	91 05       	cpc	r25, r1
    175a:	08 f4       	brcc	.+2      	; 0x175e <_Z14memoryGetInputv+0xa0>
    175c:	74 c0       	rjmp	.+232    	; 0x1846 <_Z14memoryGetInputv+0x188>
	else if ((x > X1_2) && (x < X2_2) && (y > Y1_2) && (y < Y2_2)) return 6;
    175e:	47 33       	cpi	r20, 0x37	; 55
    1760:	51 05       	cpc	r21, r1
    1762:	38 f4       	brcc	.+14     	; 0x1772 <_Z14memoryGetInputv+0xb4>
    1764:	8e 33       	cpi	r24, 0x3E	; 62
    1766:	91 05       	cpc	r25, r1
    1768:	20 f0       	brcs	.+8      	; 0x1772 <_Z14memoryGetInputv+0xb4>
    176a:	85 37       	cpi	r24, 0x75	; 117
    176c:	91 05       	cpc	r25, r1
    176e:	08 f4       	brcc	.+2      	; 0x1772 <_Z14memoryGetInputv+0xb4>
    1770:	6c c0       	rjmp	.+216    	; 0x184a <_Z14memoryGetInputv+0x18c>
	else if ((x > X1_3) && (x < X2_3) && (y > Y1_2) && (y < Y2_2)) return 7;
    1772:	67 33       	cpi	r22, 0x37	; 55
    1774:	71 05       	cpc	r23, r1
    1776:	38 f4       	brcc	.+14     	; 0x1786 <_Z14memoryGetInputv+0xc8>
    1778:	8e 33       	cpi	r24, 0x3E	; 62
    177a:	91 05       	cpc	r25, r1
    177c:	20 f0       	brcs	.+8      	; 0x1786 <_Z14memoryGetInputv+0xc8>
    177e:	85 37       	cpi	r24, 0x75	; 117
    1780:	91 05       	cpc	r25, r1
    1782:	08 f4       	brcc	.+2      	; 0x1786 <_Z14memoryGetInputv+0xc8>
    1784:	64 c0       	rjmp	.+200    	; 0x184e <_Z14memoryGetInputv+0x190>
	else if ((x > X1_4) && (x < X2_4) && (y > Y1_2) && (y < Y2_2)) return 8;
    1786:	c7 33       	cpi	r28, 0x37	; 55
    1788:	d1 05       	cpc	r29, r1
    178a:	38 f4       	brcc	.+14     	; 0x179a <_Z14memoryGetInputv+0xdc>
    178c:	8e 33       	cpi	r24, 0x3E	; 62
    178e:	91 05       	cpc	r25, r1
    1790:	20 f0       	brcs	.+8      	; 0x179a <_Z14memoryGetInputv+0xdc>
    1792:	85 37       	cpi	r24, 0x75	; 117
    1794:	91 05       	cpc	r25, r1
    1796:	08 f4       	brcc	.+2      	; 0x179a <_Z14memoryGetInputv+0xdc>
    1798:	5c c0       	rjmp	.+184    	; 0x1852 <_Z14memoryGetInputv+0x194>
	
	else if ((x > X1_1) && (x < X2_1) && (y > Y1_3) && (y < Y2_3)) return 9;
    179a:	27 33       	cpi	r18, 0x37	; 55
    179c:	31 05       	cpc	r19, r1
    179e:	38 f4       	brcc	.+14     	; 0x17ae <_Z14memoryGetInputv+0xf0>
    17a0:	8b 37       	cpi	r24, 0x7B	; 123
    17a2:	91 05       	cpc	r25, r1
    17a4:	20 f0       	brcs	.+8      	; 0x17ae <_Z14memoryGetInputv+0xf0>
    17a6:	82 3b       	cpi	r24, 0xB2	; 178
    17a8:	91 05       	cpc	r25, r1
    17aa:	08 f4       	brcc	.+2      	; 0x17ae <_Z14memoryGetInputv+0xf0>
    17ac:	54 c0       	rjmp	.+168    	; 0x1856 <_Z14memoryGetInputv+0x198>
	else if ((x > X1_2) && (x < X2_2) && (y > Y1_3) && (y < Y2_3)) return 10;
    17ae:	47 33       	cpi	r20, 0x37	; 55
    17b0:	51 05       	cpc	r21, r1
    17b2:	38 f4       	brcc	.+14     	; 0x17c2 <_Z14memoryGetInputv+0x104>
    17b4:	8b 37       	cpi	r24, 0x7B	; 123
    17b6:	91 05       	cpc	r25, r1
    17b8:	20 f0       	brcs	.+8      	; 0x17c2 <_Z14memoryGetInputv+0x104>
    17ba:	82 3b       	cpi	r24, 0xB2	; 178
    17bc:	91 05       	cpc	r25, r1
    17be:	08 f4       	brcc	.+2      	; 0x17c2 <_Z14memoryGetInputv+0x104>
    17c0:	4c c0       	rjmp	.+152    	; 0x185a <_Z14memoryGetInputv+0x19c>
	else if ((x > X1_3) && (x < X2_3) && (y > Y1_3) && (y < Y2_3)) return 11;
    17c2:	67 33       	cpi	r22, 0x37	; 55
    17c4:	71 05       	cpc	r23, r1
    17c6:	38 f4       	brcc	.+14     	; 0x17d6 <_Z14memoryGetInputv+0x118>
    17c8:	8b 37       	cpi	r24, 0x7B	; 123
    17ca:	91 05       	cpc	r25, r1
    17cc:	20 f0       	brcs	.+8      	; 0x17d6 <_Z14memoryGetInputv+0x118>
    17ce:	82 3b       	cpi	r24, 0xB2	; 178
    17d0:	91 05       	cpc	r25, r1
    17d2:	08 f4       	brcc	.+2      	; 0x17d6 <_Z14memoryGetInputv+0x118>
    17d4:	44 c0       	rjmp	.+136    	; 0x185e <_Z14memoryGetInputv+0x1a0>
	else if ((x > X1_4) && (x < X2_4) && (y > Y1_3) && (y < Y2_3)) return 12;
    17d6:	c7 33       	cpi	r28, 0x37	; 55
    17d8:	d1 05       	cpc	r29, r1
    17da:	30 f4       	brcc	.+12     	; 0x17e8 <_Z14memoryGetInputv+0x12a>
    17dc:	8b 37       	cpi	r24, 0x7B	; 123
    17de:	91 05       	cpc	r25, r1
    17e0:	18 f0       	brcs	.+6      	; 0x17e8 <_Z14memoryGetInputv+0x12a>
    17e2:	82 3b       	cpi	r24, 0xB2	; 178
    17e4:	91 05       	cpc	r25, r1
    17e6:	e8 f1       	brcs	.+122    	; 0x1862 <_Z14memoryGetInputv+0x1a4>
	
	else if ((x > X1_1) && (x < X2_1) && (y > Y1_4) && (y < Y2_4)) return 13;
    17e8:	27 33       	cpi	r18, 0x37	; 55
    17ea:	31 05       	cpc	r19, r1
    17ec:	30 f4       	brcc	.+12     	; 0x17fa <_Z14memoryGetInputv+0x13c>
    17ee:	88 3b       	cpi	r24, 0xB8	; 184
    17f0:	91 05       	cpc	r25, r1
    17f2:	18 f0       	brcs	.+6      	; 0x17fa <_Z14memoryGetInputv+0x13c>
    17f4:	8f 3e       	cpi	r24, 0xEF	; 239
    17f6:	91 05       	cpc	r25, r1
    17f8:	b0 f1       	brcs	.+108    	; 0x1866 <_Z14memoryGetInputv+0x1a8>
	else if ((x > X1_2) && (x < X2_2) && (y > Y1_4) && (y < Y2_4)) return 14;
    17fa:	47 33       	cpi	r20, 0x37	; 55
    17fc:	51 05       	cpc	r21, r1
    17fe:	30 f4       	brcc	.+12     	; 0x180c <_Z14memoryGetInputv+0x14e>
    1800:	88 3b       	cpi	r24, 0xB8	; 184
    1802:	91 05       	cpc	r25, r1
    1804:	18 f0       	brcs	.+6      	; 0x180c <_Z14memoryGetInputv+0x14e>
    1806:	8f 3e       	cpi	r24, 0xEF	; 239
    1808:	91 05       	cpc	r25, r1
    180a:	78 f1       	brcs	.+94     	; 0x186a <_Z14memoryGetInputv+0x1ac>
	else if ((x > X1_3) && (x < X2_3) && (y > Y1_4) && (y < Y2_4)) return 15;
    180c:	67 33       	cpi	r22, 0x37	; 55
    180e:	71 05       	cpc	r23, r1
    1810:	30 f4       	brcc	.+12     	; 0x181e <_Z14memoryGetInputv+0x160>
    1812:	88 3b       	cpi	r24, 0xB8	; 184
    1814:	91 05       	cpc	r25, r1
    1816:	18 f0       	brcs	.+6      	; 0x181e <_Z14memoryGetInputv+0x160>
    1818:	8f 3e       	cpi	r24, 0xEF	; 239
    181a:	91 05       	cpc	r25, r1
    181c:	40 f1       	brcs	.+80     	; 0x186e <_Z14memoryGetInputv+0x1b0>
	else if ((x > X1_4) && (x < X2_4) && (y > Y1_4) && (y < Y2_4)) return 16;
    181e:	e7 97       	sbiw	r28, 0x37	; 55
    1820:	40 f5       	brcc	.+80     	; 0x1872 <_Z14memoryGetInputv+0x1b4>
    1822:	88 3b       	cpi	r24, 0xB8	; 184
    1824:	91 05       	cpc	r25, r1
    1826:	38 f1       	brcs	.+78     	; 0x1876 <_Z14memoryGetInputv+0x1b8>
    1828:	8f 3e       	cpi	r24, 0xEF	; 239
    182a:	91 05       	cpc	r25, r1
    182c:	30 f1       	brcs	.+76     	; 0x187a <_Z14memoryGetInputv+0x1bc>
	
	else return 0;
    182e:	80 e0       	ldi	r24, 0x00	; 0
    1830:	25 c0       	rjmp	.+74     	; 0x187c <_Z14memoryGetInputv+0x1be>
uint8_t memoryGetInput() {
	while(!Touched());
	uint16_t x = getX();
	uint16_t y = getY();
	
	if ((x > BACK_X1) && (x < BACK_X2) && (y > BACK_Y1) && (y < BACK_Y2)) return 20;
    1832:	84 e1       	ldi	r24, 0x14	; 20
    1834:	23 c0       	rjmp	.+70     	; 0x187c <_Z14memoryGetInputv+0x1be>
	else if ((x > X1_1) && (x < X2_1) && (y > Y1_1) && (y < Y2_1)) return 1;
    1836:	81 e0       	ldi	r24, 0x01	; 1
    1838:	21 c0       	rjmp	.+66     	; 0x187c <_Z14memoryGetInputv+0x1be>
	else if ((x > X1_2) && (x < X2_2) && (y > Y1_1) && (y < Y2_1)) return 2;
    183a:	82 e0       	ldi	r24, 0x02	; 2
    183c:	1f c0       	rjmp	.+62     	; 0x187c <_Z14memoryGetInputv+0x1be>
	else if ((x > X1_3) && (x < X2_3) && (y > Y1_1) && (y < Y2_1)) return 3;
    183e:	83 e0       	ldi	r24, 0x03	; 3
    1840:	1d c0       	rjmp	.+58     	; 0x187c <_Z14memoryGetInputv+0x1be>
	else if ((x > X1_4) && (x < X2_4) && (y > Y1_1) && (y < Y2_1)) return 4;
    1842:	84 e0       	ldi	r24, 0x04	; 4
    1844:	1b c0       	rjmp	.+54     	; 0x187c <_Z14memoryGetInputv+0x1be>
	
	else if ((x > X1_1) && (x < X2_1) && (y > Y1_2) && (y < Y2_2)) return 5;
    1846:	85 e0       	ldi	r24, 0x05	; 5
    1848:	19 c0       	rjmp	.+50     	; 0x187c <_Z14memoryGetInputv+0x1be>
	else if ((x > X1_2) && (x < X2_2) && (y > Y1_2) && (y < Y2_2)) return 6;
    184a:	86 e0       	ldi	r24, 0x06	; 6
    184c:	17 c0       	rjmp	.+46     	; 0x187c <_Z14memoryGetInputv+0x1be>
	else if ((x > X1_3) && (x < X2_3) && (y > Y1_2) && (y < Y2_2)) return 7;
    184e:	87 e0       	ldi	r24, 0x07	; 7
    1850:	15 c0       	rjmp	.+42     	; 0x187c <_Z14memoryGetInputv+0x1be>
	else if ((x > X1_4) && (x < X2_4) && (y > Y1_2) && (y < Y2_2)) return 8;
    1852:	88 e0       	ldi	r24, 0x08	; 8
    1854:	13 c0       	rjmp	.+38     	; 0x187c <_Z14memoryGetInputv+0x1be>
	
	else if ((x > X1_1) && (x < X2_1) && (y > Y1_3) && (y < Y2_3)) return 9;
    1856:	89 e0       	ldi	r24, 0x09	; 9
    1858:	11 c0       	rjmp	.+34     	; 0x187c <_Z14memoryGetInputv+0x1be>
	else if ((x > X1_2) && (x < X2_2) && (y > Y1_3) && (y < Y2_3)) return 10;
    185a:	8a e0       	ldi	r24, 0x0A	; 10
    185c:	0f c0       	rjmp	.+30     	; 0x187c <_Z14memoryGetInputv+0x1be>
	else if ((x > X1_3) && (x < X2_3) && (y > Y1_3) && (y < Y2_3)) return 11;
    185e:	8b e0       	ldi	r24, 0x0B	; 11
    1860:	0d c0       	rjmp	.+26     	; 0x187c <_Z14memoryGetInputv+0x1be>
	else if ((x > X1_4) && (x < X2_4) && (y > Y1_3) && (y < Y2_3)) return 12;
    1862:	8c e0       	ldi	r24, 0x0C	; 12
    1864:	0b c0       	rjmp	.+22     	; 0x187c <_Z14memoryGetInputv+0x1be>
	
	else if ((x > X1_1) && (x < X2_1) && (y > Y1_4) && (y < Y2_4)) return 13;
    1866:	8d e0       	ldi	r24, 0x0D	; 13
    1868:	09 c0       	rjmp	.+18     	; 0x187c <_Z14memoryGetInputv+0x1be>
	else if ((x > X1_2) && (x < X2_2) && (y > Y1_4) && (y < Y2_4)) return 14;
    186a:	8e e0       	ldi	r24, 0x0E	; 14
    186c:	07 c0       	rjmp	.+14     	; 0x187c <_Z14memoryGetInputv+0x1be>
	else if ((x > X1_3) && (x < X2_3) && (y > Y1_4) && (y < Y2_4)) return 15;
    186e:	8f e0       	ldi	r24, 0x0F	; 15
    1870:	05 c0       	rjmp	.+10     	; 0x187c <_Z14memoryGetInputv+0x1be>
	else if ((x > X1_4) && (x < X2_4) && (y > Y1_4) && (y < Y2_4)) return 16;
	
	else return 0;
    1872:	80 e0       	ldi	r24, 0x00	; 0
    1874:	03 c0       	rjmp	.+6      	; 0x187c <_Z14memoryGetInputv+0x1be>
    1876:	80 e0       	ldi	r24, 0x00	; 0
    1878:	01 c0       	rjmp	.+2      	; 0x187c <_Z14memoryGetInputv+0x1be>
	else if ((x > X1_4) && (x < X2_4) && (y > Y1_3) && (y < Y2_3)) return 12;
	
	else if ((x > X1_1) && (x < X2_1) && (y > Y1_4) && (y < Y2_4)) return 13;
	else if ((x > X1_2) && (x < X2_2) && (y > Y1_4) && (y < Y2_4)) return 14;
	else if ((x > X1_3) && (x < X2_3) && (y > Y1_4) && (y < Y2_4)) return 15;
	else if ((x > X1_4) && (x < X2_4) && (y > Y1_4) && (y < Y2_4)) return 16;
    187a:	80 e1       	ldi	r24, 0x10	; 16
	
	else return 0;
}
    187c:	df 91       	pop	r29
    187e:	cf 91       	pop	r28
    1880:	08 95       	ret

00001882 <_Z9closeCardh>:

// "pokriva" kartu crtanjem kvadrata preko simbola
void closeCard(uint8_t index) {
    1882:	0f 93       	push	r16
    1884:	1f 93       	push	r17
	switch(index) {
    1886:	90 e0       	ldi	r25, 0x00	; 0
    1888:	fc 01       	movw	r30, r24
    188a:	31 97       	sbiw	r30, 0x01	; 1
    188c:	e0 31       	cpi	r30, 0x10	; 16
    188e:	f1 05       	cpc	r31, r1
    1890:	08 f0       	brcs	.+2      	; 0x1894 <_Z9closeCardh+0x12>
    1892:	d3 c0       	rjmp	.+422    	; 0x1a3a <_Z9closeCardh+0x1b8>
    1894:	e6 5d       	subi	r30, 0xD6	; 214
    1896:	ff 4f       	sbci	r31, 0xFF	; 255
    1898:	0c 94 ba 1d 	jmp	0x3b74	; 0x3b74 <__tablejump2__>
		case 1:
			display.fillRect(X1_1 + 2, Y1_1 + 1, X2_1 - 1, Y2_1 - 1);
    189c:	07 e3       	ldi	r16, 0x37	; 55
    189e:	10 e0       	ldi	r17, 0x00	; 0
    18a0:	26 e8       	ldi	r18, 0x86	; 134
    18a2:	30 e0       	ldi	r19, 0x00	; 0
    18a4:	41 e0       	ldi	r20, 0x01	; 1
    18a6:	50 e0       	ldi	r21, 0x00	; 0
    18a8:	61 e5       	ldi	r22, 0x51	; 81
    18aa:	70 e0       	ldi	r23, 0x00	; 0
    18ac:	8c e6       	ldi	r24, 0x6C	; 108
    18ae:	91 e0       	ldi	r25, 0x01	; 1
    18b0:	0e 94 80 14 	call	0x2900	; 0x2900 <_ZN4UTFT8fillRectEiiii>
			break;
    18b4:	c2 c0       	rjmp	.+388    	; 0x1a3a <_Z9closeCardh+0x1b8>
		case 2:
			display.fillRect(X1_2 + 2, Y1_1 + 1, X2_2 - 1, Y2_1 - 1);
    18b6:	07 e3       	ldi	r16, 0x37	; 55
    18b8:	10 e0       	ldi	r17, 0x00	; 0
    18ba:	23 ec       	ldi	r18, 0xC3	; 195
    18bc:	30 e0       	ldi	r19, 0x00	; 0
    18be:	41 e0       	ldi	r20, 0x01	; 1
    18c0:	50 e0       	ldi	r21, 0x00	; 0
    18c2:	6e e8       	ldi	r22, 0x8E	; 142
    18c4:	70 e0       	ldi	r23, 0x00	; 0
    18c6:	8c e6       	ldi	r24, 0x6C	; 108
    18c8:	91 e0       	ldi	r25, 0x01	; 1
    18ca:	0e 94 80 14 	call	0x2900	; 0x2900 <_ZN4UTFT8fillRectEiiii>
			break;
    18ce:	b5 c0       	rjmp	.+362    	; 0x1a3a <_Z9closeCardh+0x1b8>
		case 3:
			display.fillRect(X1_3 + 2, Y1_1 + 1, X2_3 - 1, Y2_1 - 1);
    18d0:	07 e3       	ldi	r16, 0x37	; 55
    18d2:	10 e0       	ldi	r17, 0x00	; 0
    18d4:	20 e0       	ldi	r18, 0x00	; 0
    18d6:	31 e0       	ldi	r19, 0x01	; 1
    18d8:	41 e0       	ldi	r20, 0x01	; 1
    18da:	50 e0       	ldi	r21, 0x00	; 0
    18dc:	6b ec       	ldi	r22, 0xCB	; 203
    18de:	70 e0       	ldi	r23, 0x00	; 0
    18e0:	8c e6       	ldi	r24, 0x6C	; 108
    18e2:	91 e0       	ldi	r25, 0x01	; 1
    18e4:	0e 94 80 14 	call	0x2900	; 0x2900 <_ZN4UTFT8fillRectEiiii>
			break;
    18e8:	a8 c0       	rjmp	.+336    	; 0x1a3a <_Z9closeCardh+0x1b8>
		case 4:
			display.fillRect(X1_4 + 2, Y1_1 + 1, X2_4 - 1, Y2_1 - 1);
    18ea:	07 e3       	ldi	r16, 0x37	; 55
    18ec:	10 e0       	ldi	r17, 0x00	; 0
    18ee:	2d e3       	ldi	r18, 0x3D	; 61
    18f0:	31 e0       	ldi	r19, 0x01	; 1
    18f2:	41 e0       	ldi	r20, 0x01	; 1
    18f4:	50 e0       	ldi	r21, 0x00	; 0
    18f6:	68 e0       	ldi	r22, 0x08	; 8
    18f8:	71 e0       	ldi	r23, 0x01	; 1
    18fa:	8c e6       	ldi	r24, 0x6C	; 108
    18fc:	91 e0       	ldi	r25, 0x01	; 1
    18fe:	0e 94 80 14 	call	0x2900	; 0x2900 <_ZN4UTFT8fillRectEiiii>
			break;
    1902:	9b c0       	rjmp	.+310    	; 0x1a3a <_Z9closeCardh+0x1b8>
		case 5:
			display.fillRect(X1_1 + 2, Y1_2 + 1, X2_1 - 1, Y2_2 - 1);
    1904:	04 e7       	ldi	r16, 0x74	; 116
    1906:	10 e0       	ldi	r17, 0x00	; 0
    1908:	26 e8       	ldi	r18, 0x86	; 134
    190a:	30 e0       	ldi	r19, 0x00	; 0
    190c:	4e e3       	ldi	r20, 0x3E	; 62
    190e:	50 e0       	ldi	r21, 0x00	; 0
    1910:	61 e5       	ldi	r22, 0x51	; 81
    1912:	70 e0       	ldi	r23, 0x00	; 0
    1914:	8c e6       	ldi	r24, 0x6C	; 108
    1916:	91 e0       	ldi	r25, 0x01	; 1
    1918:	0e 94 80 14 	call	0x2900	; 0x2900 <_ZN4UTFT8fillRectEiiii>
			break;
    191c:	8e c0       	rjmp	.+284    	; 0x1a3a <_Z9closeCardh+0x1b8>
		case 6:
			display.fillRect(X1_2 + 2, Y1_2 + 1, X2_2 - 1, Y2_2 - 1);
    191e:	04 e7       	ldi	r16, 0x74	; 116
    1920:	10 e0       	ldi	r17, 0x00	; 0
    1922:	23 ec       	ldi	r18, 0xC3	; 195
    1924:	30 e0       	ldi	r19, 0x00	; 0
    1926:	4e e3       	ldi	r20, 0x3E	; 62
    1928:	50 e0       	ldi	r21, 0x00	; 0
    192a:	6e e8       	ldi	r22, 0x8E	; 142
    192c:	70 e0       	ldi	r23, 0x00	; 0
    192e:	8c e6       	ldi	r24, 0x6C	; 108
    1930:	91 e0       	ldi	r25, 0x01	; 1
    1932:	0e 94 80 14 	call	0x2900	; 0x2900 <_ZN4UTFT8fillRectEiiii>
			break;
    1936:	81 c0       	rjmp	.+258    	; 0x1a3a <_Z9closeCardh+0x1b8>
		case 7:
			display.fillRect(X1_3 + 2, Y1_2 + 1, X2_3 - 1, Y2_2 - 1);
    1938:	04 e7       	ldi	r16, 0x74	; 116
    193a:	10 e0       	ldi	r17, 0x00	; 0
    193c:	20 e0       	ldi	r18, 0x00	; 0
    193e:	31 e0       	ldi	r19, 0x01	; 1
    1940:	4e e3       	ldi	r20, 0x3E	; 62
    1942:	50 e0       	ldi	r21, 0x00	; 0
    1944:	6b ec       	ldi	r22, 0xCB	; 203
    1946:	70 e0       	ldi	r23, 0x00	; 0
    1948:	8c e6       	ldi	r24, 0x6C	; 108
    194a:	91 e0       	ldi	r25, 0x01	; 1
    194c:	0e 94 80 14 	call	0x2900	; 0x2900 <_ZN4UTFT8fillRectEiiii>
			break;
    1950:	74 c0       	rjmp	.+232    	; 0x1a3a <_Z9closeCardh+0x1b8>
		case 8:
			display.fillRect(X1_4 + 2, Y1_2 + 1, X2_4 - 1, Y2_2 - 1);
    1952:	04 e7       	ldi	r16, 0x74	; 116
    1954:	10 e0       	ldi	r17, 0x00	; 0
    1956:	2d e3       	ldi	r18, 0x3D	; 61
    1958:	31 e0       	ldi	r19, 0x01	; 1
    195a:	4e e3       	ldi	r20, 0x3E	; 62
    195c:	50 e0       	ldi	r21, 0x00	; 0
    195e:	68 e0       	ldi	r22, 0x08	; 8
    1960:	71 e0       	ldi	r23, 0x01	; 1
    1962:	8c e6       	ldi	r24, 0x6C	; 108
    1964:	91 e0       	ldi	r25, 0x01	; 1
    1966:	0e 94 80 14 	call	0x2900	; 0x2900 <_ZN4UTFT8fillRectEiiii>
			break;	
    196a:	67 c0       	rjmp	.+206    	; 0x1a3a <_Z9closeCardh+0x1b8>
		case 9:
			display.fillRect(X1_1 + 2, Y1_3 + 1, X2_1 - 1, Y2_3 - 1);
    196c:	01 eb       	ldi	r16, 0xB1	; 177
    196e:	10 e0       	ldi	r17, 0x00	; 0
    1970:	26 e8       	ldi	r18, 0x86	; 134
    1972:	30 e0       	ldi	r19, 0x00	; 0
    1974:	4b e7       	ldi	r20, 0x7B	; 123
    1976:	50 e0       	ldi	r21, 0x00	; 0
    1978:	61 e5       	ldi	r22, 0x51	; 81
    197a:	70 e0       	ldi	r23, 0x00	; 0
    197c:	8c e6       	ldi	r24, 0x6C	; 108
    197e:	91 e0       	ldi	r25, 0x01	; 1
    1980:	0e 94 80 14 	call	0x2900	; 0x2900 <_ZN4UTFT8fillRectEiiii>
			break;
    1984:	5a c0       	rjmp	.+180    	; 0x1a3a <_Z9closeCardh+0x1b8>
		case 10:
			display.fillRect(X1_2 + 2, Y1_3 + 1, X2_2 - 1, Y2_3 - 1);
    1986:	01 eb       	ldi	r16, 0xB1	; 177
    1988:	10 e0       	ldi	r17, 0x00	; 0
    198a:	23 ec       	ldi	r18, 0xC3	; 195
    198c:	30 e0       	ldi	r19, 0x00	; 0
    198e:	4b e7       	ldi	r20, 0x7B	; 123
    1990:	50 e0       	ldi	r21, 0x00	; 0
    1992:	6e e8       	ldi	r22, 0x8E	; 142
    1994:	70 e0       	ldi	r23, 0x00	; 0
    1996:	8c e6       	ldi	r24, 0x6C	; 108
    1998:	91 e0       	ldi	r25, 0x01	; 1
    199a:	0e 94 80 14 	call	0x2900	; 0x2900 <_ZN4UTFT8fillRectEiiii>
			break;
    199e:	4d c0       	rjmp	.+154    	; 0x1a3a <_Z9closeCardh+0x1b8>
		case 11:
			display.fillRect(X1_3 + 2, Y1_3 + 1, X2_3 - 1, Y2_3 - 1);
    19a0:	01 eb       	ldi	r16, 0xB1	; 177
    19a2:	10 e0       	ldi	r17, 0x00	; 0
    19a4:	20 e0       	ldi	r18, 0x00	; 0
    19a6:	31 e0       	ldi	r19, 0x01	; 1
    19a8:	4b e7       	ldi	r20, 0x7B	; 123
    19aa:	50 e0       	ldi	r21, 0x00	; 0
    19ac:	6b ec       	ldi	r22, 0xCB	; 203
    19ae:	70 e0       	ldi	r23, 0x00	; 0
    19b0:	8c e6       	ldi	r24, 0x6C	; 108
    19b2:	91 e0       	ldi	r25, 0x01	; 1
    19b4:	0e 94 80 14 	call	0x2900	; 0x2900 <_ZN4UTFT8fillRectEiiii>
			break;
    19b8:	40 c0       	rjmp	.+128    	; 0x1a3a <_Z9closeCardh+0x1b8>
		case 12:
			display.fillRect(X1_4 + 2, Y1_3 + 1, X2_4 - 1, Y2_3 - 1);
    19ba:	01 eb       	ldi	r16, 0xB1	; 177
    19bc:	10 e0       	ldi	r17, 0x00	; 0
    19be:	2d e3       	ldi	r18, 0x3D	; 61
    19c0:	31 e0       	ldi	r19, 0x01	; 1
    19c2:	4b e7       	ldi	r20, 0x7B	; 123
    19c4:	50 e0       	ldi	r21, 0x00	; 0
    19c6:	68 e0       	ldi	r22, 0x08	; 8
    19c8:	71 e0       	ldi	r23, 0x01	; 1
    19ca:	8c e6       	ldi	r24, 0x6C	; 108
    19cc:	91 e0       	ldi	r25, 0x01	; 1
    19ce:	0e 94 80 14 	call	0x2900	; 0x2900 <_ZN4UTFT8fillRectEiiii>
			break;
    19d2:	33 c0       	rjmp	.+102    	; 0x1a3a <_Z9closeCardh+0x1b8>
		case 13:
			display.fillRect(X1_1 + 2, Y1_4 + 1, X2_1 - 1, Y2_4 - 1);
    19d4:	0e ee       	ldi	r16, 0xEE	; 238
    19d6:	10 e0       	ldi	r17, 0x00	; 0
    19d8:	26 e8       	ldi	r18, 0x86	; 134
    19da:	30 e0       	ldi	r19, 0x00	; 0
    19dc:	48 eb       	ldi	r20, 0xB8	; 184
    19de:	50 e0       	ldi	r21, 0x00	; 0
    19e0:	61 e5       	ldi	r22, 0x51	; 81
    19e2:	70 e0       	ldi	r23, 0x00	; 0
    19e4:	8c e6       	ldi	r24, 0x6C	; 108
    19e6:	91 e0       	ldi	r25, 0x01	; 1
    19e8:	0e 94 80 14 	call	0x2900	; 0x2900 <_ZN4UTFT8fillRectEiiii>
			break;
    19ec:	26 c0       	rjmp	.+76     	; 0x1a3a <_Z9closeCardh+0x1b8>
		case 14:
			display.fillRect(X1_2 + 2, Y1_4 + 1, X2_2 - 1, Y2_4 - 1);
    19ee:	0e ee       	ldi	r16, 0xEE	; 238
    19f0:	10 e0       	ldi	r17, 0x00	; 0
    19f2:	23 ec       	ldi	r18, 0xC3	; 195
    19f4:	30 e0       	ldi	r19, 0x00	; 0
    19f6:	48 eb       	ldi	r20, 0xB8	; 184
    19f8:	50 e0       	ldi	r21, 0x00	; 0
    19fa:	6e e8       	ldi	r22, 0x8E	; 142
    19fc:	70 e0       	ldi	r23, 0x00	; 0
    19fe:	8c e6       	ldi	r24, 0x6C	; 108
    1a00:	91 e0       	ldi	r25, 0x01	; 1
    1a02:	0e 94 80 14 	call	0x2900	; 0x2900 <_ZN4UTFT8fillRectEiiii>
			break;
    1a06:	19 c0       	rjmp	.+50     	; 0x1a3a <_Z9closeCardh+0x1b8>
		case 15:
			display.fillRect(X1_3 + 2, Y1_4 + 1, X2_3 - 1, Y2_4 - 1);
    1a08:	0e ee       	ldi	r16, 0xEE	; 238
    1a0a:	10 e0       	ldi	r17, 0x00	; 0
    1a0c:	20 e0       	ldi	r18, 0x00	; 0
    1a0e:	31 e0       	ldi	r19, 0x01	; 1
    1a10:	48 eb       	ldi	r20, 0xB8	; 184
    1a12:	50 e0       	ldi	r21, 0x00	; 0
    1a14:	6b ec       	ldi	r22, 0xCB	; 203
    1a16:	70 e0       	ldi	r23, 0x00	; 0
    1a18:	8c e6       	ldi	r24, 0x6C	; 108
    1a1a:	91 e0       	ldi	r25, 0x01	; 1
    1a1c:	0e 94 80 14 	call	0x2900	; 0x2900 <_ZN4UTFT8fillRectEiiii>
			break;
    1a20:	0c c0       	rjmp	.+24     	; 0x1a3a <_Z9closeCardh+0x1b8>
		case 16:
			display.fillRect(X1_4 + 2, Y1_4 + 1, X2_4 - 1, Y2_4 - 1);
    1a22:	0e ee       	ldi	r16, 0xEE	; 238
    1a24:	10 e0       	ldi	r17, 0x00	; 0
    1a26:	2d e3       	ldi	r18, 0x3D	; 61
    1a28:	31 e0       	ldi	r19, 0x01	; 1
    1a2a:	48 eb       	ldi	r20, 0xB8	; 184
    1a2c:	50 e0       	ldi	r21, 0x00	; 0
    1a2e:	68 e0       	ldi	r22, 0x08	; 8
    1a30:	71 e0       	ldi	r23, 0x01	; 1
    1a32:	8c e6       	ldi	r24, 0x6C	; 108
    1a34:	91 e0       	ldi	r25, 0x01	; 1
    1a36:	0e 94 80 14 	call	0x2900	; 0x2900 <_ZN4UTFT8fillRectEiiii>
			break;
	}
}
    1a3a:	1f 91       	pop	r17
    1a3c:	0f 91       	pop	r16
    1a3e:	08 95       	ret

00001a40 <_Z9checkOpenv>:

// provjera ako je memory karta vec okrenuta
void checkOpen() {
	if (board[c1 - 1] != board[c2 - 1] && control[c1 - 1] == 0 && control[c2 - 1] == 0) {  //ako su karte razlicite i kontrolno polje je 0 za obje
    1a40:	80 91 4b 01 	lds	r24, 0x014B	; 0x80014b <c1>
    1a44:	90 e0       	ldi	r25, 0x00	; 0
    1a46:	01 97       	sbiw	r24, 0x01	; 1
    1a48:	fc 01       	movw	r30, r24
    1a4a:	e4 5a       	subi	r30, 0xA4	; 164
    1a4c:	fe 4f       	sbci	r31, 0xFE	; 254
    1a4e:	50 81       	ld	r21, Z
    1a50:	20 91 4a 01 	lds	r18, 0x014A	; 0x80014a <c2>
    1a54:	30 e0       	ldi	r19, 0x00	; 0
    1a56:	21 50       	subi	r18, 0x01	; 1
    1a58:	31 09       	sbc	r19, r1
    1a5a:	f9 01       	movw	r30, r18
    1a5c:	e4 5a       	subi	r30, 0xA4	; 164
    1a5e:	fe 4f       	sbci	r31, 0xFE	; 254
    1a60:	40 81       	ld	r20, Z
    1a62:	54 17       	cp	r21, r20
    1a64:	11 f1       	breq	.+68     	; 0x1aaa <_Z9checkOpenv+0x6a>
    1a66:	fc 01       	movw	r30, r24
    1a68:	e4 5b       	subi	r30, 0xB4	; 180
    1a6a:	fe 4f       	sbci	r31, 0xFE	; 254
    1a6c:	40 81       	ld	r20, Z
    1a6e:	41 11       	cpse	r20, r1
    1a70:	1c c0       	rjmp	.+56     	; 0x1aaa <_Z9checkOpenv+0x6a>
    1a72:	f9 01       	movw	r30, r18
    1a74:	e4 5b       	subi	r30, 0xB4	; 180
    1a76:	fe 4f       	sbci	r31, 0xFE	; 254
    1a78:	40 81       	ld	r20, Z
    1a7a:	41 11       	cpse	r20, r1
    1a7c:	16 c0       	rjmp	.+44     	; 0x1aaa <_Z9checkOpenv+0x6a>
		display.setColor(0, 0, 0); //postavlja boju u crnu da de obrise broj
    1a7e:	20 e0       	ldi	r18, 0x00	; 0
    1a80:	60 e0       	ldi	r22, 0x00	; 0
    1a82:	8c e6       	ldi	r24, 0x6C	; 108
    1a84:	91 e0       	ldi	r25, 0x01	; 1
    1a86:	0e 94 16 15 	call	0x2a2c	; 0x2a2c <_ZN4UTFT8setColorEhhh>
		closeCard(c1);
    1a8a:	80 91 4b 01 	lds	r24, 0x014B	; 0x80014b <c1>
    1a8e:	0e 94 41 0c 	call	0x1882	; 0x1882 <_Z9closeCardh>
		closeCard(c2);  
    1a92:	80 91 4a 01 	lds	r24, 0x014A	; 0x80014a <c2>
    1a96:	0e 94 41 0c 	call	0x1882	; 0x1882 <_Z9closeCardh>
		display.setColor(255, 255, 255);  // vraca boju u bijelu da se ostali dijelovi mogu ispisati
    1a9a:	2f ef       	ldi	r18, 0xFF	; 255
    1a9c:	4f ef       	ldi	r20, 0xFF	; 255
    1a9e:	6f ef       	ldi	r22, 0xFF	; 255
    1aa0:	8c e6       	ldi	r24, 0x6C	; 108
    1aa2:	91 e0       	ldi	r25, 0x01	; 1
    1aa4:	0e 94 16 15 	call	0x2a2c	; 0x2a2c <_ZN4UTFT8setColorEhhh>
    1aa8:	08 95       	ret
	} else { //ako su isti okrenuti, postavi kontrolno polje u 1 i povecaj broj pogodjenih parova
		control[c1-1] = 1;
    1aaa:	fc 01       	movw	r30, r24
    1aac:	e4 5b       	subi	r30, 0xB4	; 180
    1aae:	fe 4f       	sbci	r31, 0xFE	; 254
    1ab0:	41 e0       	ldi	r20, 0x01	; 1
    1ab2:	40 83       	st	Z, r20
		control[c2-1] = 1;
    1ab4:	f9 01       	movw	r30, r18
    1ab6:	e4 5b       	subi	r30, 0xB4	; 180
    1ab8:	fe 4f       	sbci	r31, 0xFE	; 254
    1aba:	40 83       	st	Z, r20
		matched++;
    1abc:	80 91 48 01 	lds	r24, 0x0148	; 0x800148 <matched>
    1ac0:	8f 5f       	subi	r24, 0xFF	; 255
    1ac2:	80 93 48 01 	sts	0x0148, r24	; 0x800148 <matched>
    1ac6:	08 95       	ret

00001ac8 <_Z10revealCardh>:
	}
}

// otkrivanje karte - crtanje simbola iz polja na plocu
void revealCard(uint8_t input) {
    1ac8:	cf 92       	push	r12
    1aca:	ef 92       	push	r14
    1acc:	ff 92       	push	r15
    1ace:	0f 93       	push	r16
    1ad0:	1f 93       	push	r17
    1ad2:	98 2f       	mov	r25, r24
    1ad4:	93 70       	andi	r25, 0x03	; 3
	uint16_t x = 0, y = 0;
	
	if (input % 4 == 1) {             // prvi stupac
    1ad6:	91 30       	cpi	r25, 0x01	; 1
    1ad8:	49 f0       	breq	.+18     	; 0x1aec <_Z10revealCardh+0x24>
		x = X1_1;
	} else if (input % 4 == 2) {      // drugi stupac
    1ada:	92 30       	cpi	r25, 0x02	; 2
    1adc:	51 f0       	breq	.+20     	; 0x1af2 <_Z10revealCardh+0x2a>
		x = X1_2;
	} else if (input % 4 == 3) {      // treci stupac
    1ade:	93 30       	cpi	r25, 0x03	; 3
    1ae0:	59 f0       	breq	.+22     	; 0x1af8 <_Z10revealCardh+0x30>
		x = X1_3;
	} else if (input % 4 == 0) {      // cetvrti stupac
    1ae2:	99 23       	and	r25, r25
    1ae4:	61 f0       	breq	.+24     	; 0x1afe <_Z10revealCardh+0x36>
	}
}

// otkrivanje karte - crtanje simbola iz polja na plocu
void revealCard(uint8_t input) {
	uint16_t x = 0, y = 0;
    1ae6:	20 e0       	ldi	r18, 0x00	; 0
    1ae8:	30 e0       	ldi	r19, 0x00	; 0
    1aea:	0b c0       	rjmp	.+22     	; 0x1b02 <_Z10revealCardh+0x3a>
	
	if (input % 4 == 1) {             // prvi stupac
		x = X1_1;
    1aec:	2f e4       	ldi	r18, 0x4F	; 79
    1aee:	30 e0       	ldi	r19, 0x00	; 0
    1af0:	08 c0       	rjmp	.+16     	; 0x1b02 <_Z10revealCardh+0x3a>
	} else if (input % 4 == 2) {      // drugi stupac
		x = X1_2;
    1af2:	2c e8       	ldi	r18, 0x8C	; 140
    1af4:	30 e0       	ldi	r19, 0x00	; 0
    1af6:	05 c0       	rjmp	.+10     	; 0x1b02 <_Z10revealCardh+0x3a>
	} else if (input % 4 == 3) {      // treci stupac
		x = X1_3;
    1af8:	29 ec       	ldi	r18, 0xC9	; 201
    1afa:	30 e0       	ldi	r19, 0x00	; 0
    1afc:	02 c0       	rjmp	.+4      	; 0x1b02 <_Z10revealCardh+0x3a>
	} else if (input % 4 == 0) {      // cetvrti stupac
		x = X1_4;
    1afe:	26 e0       	ldi	r18, 0x06	; 6
    1b00:	31 e0       	ldi	r19, 0x01	; 1
	}
	
	if ((input > 0) && (input < 5)) {               // prvi red
    1b02:	9f ef       	ldi	r25, 0xFF	; 255
    1b04:	98 0f       	add	r25, r24
    1b06:	94 30       	cpi	r25, 0x04	; 4
    1b08:	78 f0       	brcs	.+30     	; 0x1b28 <_Z10revealCardh+0x60>
		y = Y1_1;
	} else if ((input > 4) && (input < 9)) {        // drugi stupac
    1b0a:	9b ef       	ldi	r25, 0xFB	; 251
    1b0c:	98 0f       	add	r25, r24
    1b0e:	94 30       	cpi	r25, 0x04	; 4
    1b10:	70 f0       	brcs	.+28     	; 0x1b2e <_Z10revealCardh+0x66>
		y = Y1_2;
	} else if ((input > 8) && (input < 13)) {       // treci stupac
    1b12:	97 ef       	ldi	r25, 0xF7	; 247
    1b14:	98 0f       	add	r25, r24
    1b16:	94 30       	cpi	r25, 0x04	; 4
    1b18:	68 f0       	brcs	.+26     	; 0x1b34 <_Z10revealCardh+0x6c>
		y = Y1_3;
	} else if ((input > 12) && (input < 17)) {      // cetvrti stupac
    1b1a:	93 ef       	ldi	r25, 0xF3	; 243
    1b1c:	98 0f       	add	r25, r24
    1b1e:	94 30       	cpi	r25, 0x04	; 4
    1b20:	60 f0       	brcs	.+24     	; 0x1b3a <_Z10revealCardh+0x72>
	}
}

// otkrivanje karte - crtanje simbola iz polja na plocu
void revealCard(uint8_t input) {
	uint16_t x = 0, y = 0;
    1b22:	00 e0       	ldi	r16, 0x00	; 0
    1b24:	10 e0       	ldi	r17, 0x00	; 0
    1b26:	0b c0       	rjmp	.+22     	; 0x1b3e <_Z10revealCardh+0x76>
	} else if (input % 4 == 0) {      // cetvrti stupac
		x = X1_4;
	}
	
	if ((input > 0) && (input < 5)) {               // prvi red
		y = Y1_1;
    1b28:	00 e0       	ldi	r16, 0x00	; 0
    1b2a:	10 e0       	ldi	r17, 0x00	; 0
    1b2c:	08 c0       	rjmp	.+16     	; 0x1b3e <_Z10revealCardh+0x76>
	} else if ((input > 4) && (input < 9)) {        // drugi stupac
		y = Y1_2;
    1b2e:	0d e3       	ldi	r16, 0x3D	; 61
    1b30:	10 e0       	ldi	r17, 0x00	; 0
    1b32:	05 c0       	rjmp	.+10     	; 0x1b3e <_Z10revealCardh+0x76>
	} else if ((input > 8) && (input < 13)) {       // treci stupac
		y = Y1_3;
    1b34:	0a e7       	ldi	r16, 0x7A	; 122
    1b36:	10 e0       	ldi	r17, 0x00	; 0
    1b38:	02 c0       	rjmp	.+4      	; 0x1b3e <_Z10revealCardh+0x76>
	} else if ((input > 12) && (input < 17)) {      // cetvrti stupac
		y = Y1_4;
    1b3a:	07 eb       	ldi	r16, 0xB7	; 183
    1b3c:	10 e0       	ldi	r17, 0x00	; 0
	}
	
	uint8_t openSymbol = board[input - 1];
    1b3e:	e8 2f       	mov	r30, r24
    1b40:	f0 e0       	ldi	r31, 0x00	; 0
    1b42:	e5 5a       	subi	r30, 0xA5	; 165
    1b44:	fe 4f       	sbci	r31, 0xFE	; 254
    1b46:	40 81       	ld	r20, Z
	
	display.printNumI(openSymbol, x + 20, y + 20);
    1b48:	0c 5e       	subi	r16, 0xEC	; 236
    1b4a:	1f 4f       	sbci	r17, 0xFF	; 255
    1b4c:	2c 5e       	subi	r18, 0xEC	; 236
    1b4e:	3f 4f       	sbci	r19, 0xFF	; 255
    1b50:	50 e0       	ldi	r21, 0x00	; 0
    1b52:	60 e0       	ldi	r22, 0x00	; 0
    1b54:	70 e0       	ldi	r23, 0x00	; 0
    1b56:	68 94       	set
    1b58:	cc 24       	eor	r12, r12
    1b5a:	c5 f8       	bld	r12, 5
    1b5c:	e1 2c       	mov	r14, r1
    1b5e:	f1 2c       	mov	r15, r1
    1b60:	8c e6       	ldi	r24, 0x6C	; 108
    1b62:	91 e0       	ldi	r25, 0x01	; 1
    1b64:	0e 94 64 19 	call	0x32c8	; 0x32c8 <_ZN4UTFT9printNumIEliiic>
    1b68:	2f ef       	ldi	r18, 0xFF	; 255
    1b6a:	8f e7       	ldi	r24, 0x7F	; 127
    1b6c:	94 e0       	ldi	r25, 0x04	; 4
    1b6e:	21 50       	subi	r18, 0x01	; 1
    1b70:	80 40       	sbci	r24, 0x00	; 0
    1b72:	90 40       	sbci	r25, 0x00	; 0
    1b74:	e1 f7       	brne	.-8      	; 0x1b6e <_Z10revealCardh+0xa6>
    1b76:	00 c0       	rjmp	.+0      	; 0x1b78 <_Z10revealCardh+0xb0>
    1b78:	00 00       	nop
	
	_delay_ms(200);                                     // Debounce cekanjem
}
    1b7a:	1f 91       	pop	r17
    1b7c:	0f 91       	pop	r16
    1b7e:	ff 90       	pop	r15
    1b80:	ef 90       	pop	r14
    1b82:	cf 90       	pop	r12
    1b84:	08 95       	ret

00001b86 <_Z10memoryInitv>:

// inicijalno stanje memory igre - generiranje sadrzaja polja i crtanje ploce
void memoryInit() {
    1b86:	0f 93       	push	r16
    1b88:	1f 93       	push	r17
	fillBoard();
    1b8a:	0e 94 38 0b 	call	0x1670	; 0x1670 <_Z9fillBoardv>
	
	display.clrScr();
    1b8e:	8c e6       	ldi	r24, 0x6C	; 108
    1b90:	91 e0       	ldi	r25, 0x01	; 1
    1b92:	0e 94 e0 14 	call	0x29c0	; 0x29c0 <_ZN4UTFT6clrScrEv>
	
	// gumb za povratak
	display.drawRect(BACK_X1, BACK_Y1, BACK_X2, BACK_Y2);
    1b96:	08 e2       	ldi	r16, 0x28	; 40
    1b98:	10 e0       	ldi	r17, 0x00	; 0
    1b9a:	28 e2       	ldi	r18, 0x28	; 40
    1b9c:	30 e0       	ldi	r19, 0x00	; 0
    1b9e:	40 e0       	ldi	r20, 0x00	; 0
    1ba0:	50 e0       	ldi	r21, 0x00	; 0
    1ba2:	60 e0       	ldi	r22, 0x00	; 0
    1ba4:	70 e0       	ldi	r23, 0x00	; 0
    1ba6:	8c e6       	ldi	r24, 0x6C	; 108
    1ba8:	91 e0       	ldi	r25, 0x01	; 1
    1baa:	0e 94 d8 15 	call	0x2bb0	; 0x2bb0 <_ZN4UTFT8drawRectEiiii>
	display.print("<", BACK_TEXT_X, BACK_TEXT_Y);
    1bae:	00 e0       	ldi	r16, 0x00	; 0
    1bb0:	10 e0       	ldi	r17, 0x00	; 0
    1bb2:	2c e0       	ldi	r18, 0x0C	; 12
    1bb4:	30 e0       	ldi	r19, 0x00	; 0
    1bb6:	4c e0       	ldi	r20, 0x0C	; 12
    1bb8:	50 e0       	ldi	r21, 0x00	; 0
    1bba:	6c e6       	ldi	r22, 0x6C	; 108
    1bbc:	70 e0       	ldi	r23, 0x00	; 0
    1bbe:	8c e6       	ldi	r24, 0x6C	; 108
    1bc0:	91 e0       	ldi	r25, 0x01	; 1
    1bc2:	0e 94 89 18 	call	0x3112	; 0x3112 <_ZN4UTFT5printEPKciii>
	
	display.print("Moves", 0, 60); // labela za broj poteza
    1bc6:	2c e3       	ldi	r18, 0x3C	; 60
    1bc8:	30 e0       	ldi	r19, 0x00	; 0
    1bca:	40 e0       	ldi	r20, 0x00	; 0
    1bcc:	50 e0       	ldi	r21, 0x00	; 0
    1bce:	6e e6       	ldi	r22, 0x6E	; 110
    1bd0:	70 e0       	ldi	r23, 0x00	; 0
    1bd2:	8c e6       	ldi	r24, 0x6C	; 108
    1bd4:	91 e0       	ldi	r25, 0x01	; 1
    1bd6:	0e 94 89 18 	call	0x3112	; 0x3112 <_ZN4UTFT5printEPKciii>
	display.print("Time", 0, 140); // labela za vrijeme
    1bda:	2c e8       	ldi	r18, 0x8C	; 140
    1bdc:	30 e0       	ldi	r19, 0x00	; 0
    1bde:	40 e0       	ldi	r20, 0x00	; 0
    1be0:	50 e0       	ldi	r21, 0x00	; 0
    1be2:	64 e7       	ldi	r22, 0x74	; 116
    1be4:	70 e0       	ldi	r23, 0x00	; 0
    1be6:	8c e6       	ldi	r24, 0x6C	; 108
    1be8:	91 e0       	ldi	r25, 0x01	; 1
    1bea:	0e 94 89 18 	call	0x3112	; 0x3112 <_ZN4UTFT5printEPKciii>
	
	//crtanje ploce
	display.fillRect(BORDER_L, BOARD_Y1, BORDER_L + BORDER_WIDTH, BOARD_Y2);
    1bee:	0f ee       	ldi	r16, 0xEF	; 239
    1bf0:	10 e0       	ldi	r17, 0x00	; 0
    1bf2:	2d e8       	ldi	r18, 0x8D	; 141
    1bf4:	30 e0       	ldi	r19, 0x00	; 0
    1bf6:	40 e0       	ldi	r20, 0x00	; 0
    1bf8:	50 e0       	ldi	r21, 0x00	; 0
    1bfa:	68 e8       	ldi	r22, 0x88	; 136
    1bfc:	70 e0       	ldi	r23, 0x00	; 0
    1bfe:	8c e6       	ldi	r24, 0x6C	; 108
    1c00:	91 e0       	ldi	r25, 0x01	; 1
    1c02:	0e 94 80 14 	call	0x2900	; 0x2900 <_ZN4UTFT8fillRectEiiii>
	display.fillRect(BORDER_C, BOARD_Y1, BORDER_C + BORDER_WIDTH, BOARD_Y2);
    1c06:	2a ec       	ldi	r18, 0xCA	; 202
    1c08:	30 e0       	ldi	r19, 0x00	; 0
    1c0a:	40 e0       	ldi	r20, 0x00	; 0
    1c0c:	50 e0       	ldi	r21, 0x00	; 0
    1c0e:	65 ec       	ldi	r22, 0xC5	; 197
    1c10:	70 e0       	ldi	r23, 0x00	; 0
    1c12:	8c e6       	ldi	r24, 0x6C	; 108
    1c14:	91 e0       	ldi	r25, 0x01	; 1
    1c16:	0e 94 80 14 	call	0x2900	; 0x2900 <_ZN4UTFT8fillRectEiiii>
	display.fillRect(BORDER_R, BOARD_Y1, BORDER_R + BORDER_WIDTH, BOARD_Y2);
    1c1a:	27 e0       	ldi	r18, 0x07	; 7
    1c1c:	31 e0       	ldi	r19, 0x01	; 1
    1c1e:	40 e0       	ldi	r20, 0x00	; 0
    1c20:	50 e0       	ldi	r21, 0x00	; 0
    1c22:	62 e0       	ldi	r22, 0x02	; 2
    1c24:	71 e0       	ldi	r23, 0x01	; 1
    1c26:	8c e6       	ldi	r24, 0x6C	; 108
    1c28:	91 e0       	ldi	r25, 0x01	; 1
    1c2a:	0e 94 80 14 	call	0x2900	; 0x2900 <_ZN4UTFT8fillRectEiiii>
	display.fillRect(BOARD_X1, BORDER_T, BOARD_X2, BORDER_T + BORDER_WIDTH);
    1c2e:	0d e3       	ldi	r16, 0x3D	; 61
    1c30:	10 e0       	ldi	r17, 0x00	; 0
    1c32:	2e e3       	ldi	r18, 0x3E	; 62
    1c34:	31 e0       	ldi	r19, 0x01	; 1
    1c36:	48 e3       	ldi	r20, 0x38	; 56
    1c38:	50 e0       	ldi	r21, 0x00	; 0
    1c3a:	6f e4       	ldi	r22, 0x4F	; 79
    1c3c:	70 e0       	ldi	r23, 0x00	; 0
    1c3e:	8c e6       	ldi	r24, 0x6C	; 108
    1c40:	91 e0       	ldi	r25, 0x01	; 1
    1c42:	0e 94 80 14 	call	0x2900	; 0x2900 <_ZN4UTFT8fillRectEiiii>
	display.fillRect(BOARD_X1, BORDER_M, BOARD_X2, BORDER_M + BORDER_WIDTH);
    1c46:	0a e7       	ldi	r16, 0x7A	; 122
    1c48:	10 e0       	ldi	r17, 0x00	; 0
    1c4a:	2e e3       	ldi	r18, 0x3E	; 62
    1c4c:	31 e0       	ldi	r19, 0x01	; 1
    1c4e:	45 e7       	ldi	r20, 0x75	; 117
    1c50:	50 e0       	ldi	r21, 0x00	; 0
    1c52:	6f e4       	ldi	r22, 0x4F	; 79
    1c54:	70 e0       	ldi	r23, 0x00	; 0
    1c56:	8c e6       	ldi	r24, 0x6C	; 108
    1c58:	91 e0       	ldi	r25, 0x01	; 1
    1c5a:	0e 94 80 14 	call	0x2900	; 0x2900 <_ZN4UTFT8fillRectEiiii>
	display.fillRect(BOARD_X1, BORDER_B, BOARD_X2, BORDER_B + BORDER_WIDTH);
    1c5e:	07 eb       	ldi	r16, 0xB7	; 183
    1c60:	10 e0       	ldi	r17, 0x00	; 0
    1c62:	2e e3       	ldi	r18, 0x3E	; 62
    1c64:	31 e0       	ldi	r19, 0x01	; 1
    1c66:	42 eb       	ldi	r20, 0xB2	; 178
    1c68:	50 e0       	ldi	r21, 0x00	; 0
    1c6a:	6f e4       	ldi	r22, 0x4F	; 79
    1c6c:	70 e0       	ldi	r23, 0x00	; 0
    1c6e:	8c e6       	ldi	r24, 0x6C	; 108
    1c70:	91 e0       	ldi	r25, 0x01	; 1
    1c72:	0e 94 80 14 	call	0x2900	; 0x2900 <_ZN4UTFT8fillRectEiiii>
}
    1c76:	1f 91       	pop	r17
    1c78:	0f 91       	pop	r16
    1c7a:	08 95       	ret

00001c7c <_Z20memoryResetVariablesv>:

// postavlja varijable u pocetne vrijednosti (ne highscores, ne broj rundi), odnosi se na varijable za trenutnu rundu
void memoryResetVariables() {
	  for (uint8_t i = 0; i < 16; i++) {
    1c7c:	20 e0       	ldi	r18, 0x00	; 0
    1c7e:	20 31       	cpi	r18, 0x10	; 16
    1c80:	60 f4       	brcc	.+24     	; 0x1c9a <_Z20memoryResetVariablesv+0x1e>
		  board[i] = 0;
    1c82:	82 2f       	mov	r24, r18
    1c84:	90 e0       	ldi	r25, 0x00	; 0
    1c86:	fc 01       	movw	r30, r24
    1c88:	e4 5a       	subi	r30, 0xA4	; 164
    1c8a:	fe 4f       	sbci	r31, 0xFE	; 254
    1c8c:	10 82       	st	Z, r1
		  control[i] = 0;
    1c8e:	fc 01       	movw	r30, r24
    1c90:	e4 5b       	subi	r30, 0xB4	; 180
    1c92:	fe 4f       	sbci	r31, 0xFE	; 254
    1c94:	10 82       	st	Z, r1
	display.fillRect(BOARD_X1, BORDER_B, BOARD_X2, BORDER_B + BORDER_WIDTH);
}

// postavlja varijable u pocetne vrijednosti (ne highscores, ne broj rundi), odnosi se na varijable za trenutnu rundu
void memoryResetVariables() {
	  for (uint8_t i = 0; i < 16; i++) {
    1c96:	2f 5f       	subi	r18, 0xFF	; 255
    1c98:	f2 cf       	rjmp	.-28     	; 0x1c7e <_Z20memoryResetVariablesv+0x2>
		  board[i] = 0;
		  control[i] = 0;
	  }
	  c1 = c2 = 0;
    1c9a:	10 92 4a 01 	sts	0x014A, r1	; 0x80014a <c2>
    1c9e:	10 92 4b 01 	sts	0x014B, r1	; 0x80014b <c1>
	  state = 0;
    1ca2:	10 92 49 01 	sts	0x0149, r1	; 0x800149 <state>
	  matched = 0;
    1ca6:	10 92 48 01 	sts	0x0148, r1	; 0x800148 <matched>
	  moveCounter = 0;
    1caa:	10 92 47 01 	sts	0x0147, r1	; 0x800147 <moveCounter>
	  currentTime[0] = currentTime[1] = currentTime[2] = 0;  
    1cae:	e4 e4       	ldi	r30, 0x44	; 68
    1cb0:	f1 e0       	ldi	r31, 0x01	; 1
    1cb2:	12 82       	std	Z+2, r1	; 0x02
    1cb4:	11 82       	std	Z+1, r1	; 0x01
    1cb6:	10 82       	st	Z, r1
    1cb8:	08 95       	ret

00001cba <_Z15resetHighscoresv>:
}

// resetira rekorde
void resetHighscores() {
	bestMoves = 255;
    1cba:	8f ef       	ldi	r24, 0xFF	; 255
    1cbc:	80 93 69 00 	sts	0x0069, r24	; 0x800069 <bestMoves>
	bestTime[0] = bestTime[1] = bestTime[2] = 255;
    1cc0:	e6 e6       	ldi	r30, 0x66	; 102
    1cc2:	f0 e0       	ldi	r31, 0x00	; 0
    1cc4:	82 83       	std	Z+2, r24	; 0x02
    1cc6:	81 83       	std	Z+1, r24	; 0x01
    1cc8:	80 83       	st	Z, r24
	roundStreak = 0;
    1cca:	10 92 41 01 	sts	0x0141, r1	; 0x800141 <roundStreak>
    1cce:	08 95       	ret

00001cd0 <_Z13memoryEndGamev>:
}

// crta ekran za kraj igre
void memoryEndGame() {	
    1cd0:	cf 92       	push	r12
    1cd2:	ef 92       	push	r14
    1cd4:	ff 92       	push	r15
    1cd6:	0f 93       	push	r16
    1cd8:	1f 93       	push	r17
    1cda:	cf 93       	push	r28
    1cdc:	df 93       	push	r29
	// provjerava ako su trenutne varijable bolje od rekorda pa iscrtava ekran za kraj igre
	if (moveCounter < bestMoves) bestMoves = moveCounter;
    1cde:	80 91 47 01 	lds	r24, 0x0147	; 0x800147 <moveCounter>
    1ce2:	90 91 69 00 	lds	r25, 0x0069	; 0x800069 <bestMoves>
    1ce6:	89 17       	cp	r24, r25
    1ce8:	10 f4       	brcc	.+4      	; 0x1cee <_Z13memoryEndGamev+0x1e>
    1cea:	80 93 69 00 	sts	0x0069, r24	; 0x800069 <bestMoves>
	
	if (currentTime[0] * 60 + currentTime[1] <= bestTime[0] * 60 + bestTime[1]) {
    1cee:	e4 e4       	ldi	r30, 0x44	; 68
    1cf0:	f1 e0       	ldi	r31, 0x01	; 1
    1cf2:	60 81       	ld	r22, Z
    1cf4:	4c e3       	ldi	r20, 0x3C	; 60
    1cf6:	51 81       	ldd	r21, Z+1	; 0x01
    1cf8:	25 2f       	mov	r18, r21
    1cfa:	30 e0       	ldi	r19, 0x00	; 0
    1cfc:	46 9f       	mul	r20, r22
    1cfe:	20 0d       	add	r18, r0
    1d00:	31 1d       	adc	r19, r1
    1d02:	11 24       	eor	r1, r1
    1d04:	e6 e6       	ldi	r30, 0x66	; 102
    1d06:	f0 e0       	ldi	r31, 0x00	; 0
    1d08:	70 81       	ld	r23, Z
    1d0a:	81 81       	ldd	r24, Z+1	; 0x01
    1d0c:	90 e0       	ldi	r25, 0x00	; 0
    1d0e:	47 9f       	mul	r20, r23
    1d10:	80 0d       	add	r24, r0
    1d12:	91 1d       	adc	r25, r1
    1d14:	11 24       	eor	r1, r1
    1d16:	82 17       	cp	r24, r18
    1d18:	93 07       	cpc	r25, r19
    1d1a:	2c f0       	brlt	.+10     	; 0x1d26 <_Z13memoryEndGamev+0x56>
		bestTime[0] = currentTime[0];
    1d1c:	60 83       	st	Z, r22
		bestTime[1] = currentTime[1];
    1d1e:	51 83       	std	Z+1, r21	; 0x01
		bestTime[2] = currentTime[2];
    1d20:	80 91 46 01 	lds	r24, 0x0146	; 0x800146 <currentTime+0x2>
    1d24:	82 83       	std	Z+2, r24	; 0x02
	}
	
	if (roundCounter > roundStreak) roundStreak = roundCounter;
    1d26:	80 91 42 01 	lds	r24, 0x0142	; 0x800142 <roundCounter>
    1d2a:	90 91 41 01 	lds	r25, 0x0141	; 0x800141 <roundStreak>
    1d2e:	98 17       	cp	r25, r24
    1d30:	10 f4       	brcc	.+4      	; 0x1d36 <_Z13memoryEndGamev+0x66>
    1d32:	80 93 41 01 	sts	0x0141, r24	; 0x800141 <roundStreak>
	
	display.clrScr();
    1d36:	8c e6       	ldi	r24, 0x6C	; 108
    1d38:	91 e0       	ldi	r25, 0x01	; 1
    1d3a:	0e 94 e0 14 	call	0x29c0	; 0x29c0 <_ZN4UTFT6clrScrEv>
	
	display.print("Round:", 100, 10);
    1d3e:	00 e0       	ldi	r16, 0x00	; 0
    1d40:	10 e0       	ldi	r17, 0x00	; 0
    1d42:	2a e0       	ldi	r18, 0x0A	; 10
    1d44:	30 e0       	ldi	r19, 0x00	; 0
    1d46:	44 e6       	ldi	r20, 0x64	; 100
    1d48:	50 e0       	ldi	r21, 0x00	; 0
    1d4a:	69 e7       	ldi	r22, 0x79	; 121
    1d4c:	70 e0       	ldi	r23, 0x00	; 0
    1d4e:	8c e6       	ldi	r24, 0x6C	; 108
    1d50:	91 e0       	ldi	r25, 0x01	; 1
    1d52:	0e 94 89 18 	call	0x3112	; 0x3112 <_ZN4UTFT5printEPKciii>
	display.printNumI(roundCounter, 200, 10);
    1d56:	40 91 42 01 	lds	r20, 0x0142	; 0x800142 <roundCounter>
    1d5a:	50 e0       	ldi	r21, 0x00	; 0
    1d5c:	60 e0       	ldi	r22, 0x00	; 0
    1d5e:	70 e0       	ldi	r23, 0x00	; 0
    1d60:	68 94       	set
    1d62:	cc 24       	eor	r12, r12
    1d64:	c5 f8       	bld	r12, 5
    1d66:	e1 2c       	mov	r14, r1
    1d68:	f1 2c       	mov	r15, r1
    1d6a:	0a e0       	ldi	r16, 0x0A	; 10
    1d6c:	10 e0       	ldi	r17, 0x00	; 0
    1d6e:	28 ec       	ldi	r18, 0xC8	; 200
    1d70:	30 e0       	ldi	r19, 0x00	; 0
    1d72:	8c e6       	ldi	r24, 0x6C	; 108
    1d74:	91 e0       	ldi	r25, 0x01	; 1
    1d76:	0e 94 64 19 	call	0x32c8	; 0x32c8 <_ZN4UTFT9printNumIEliiic>
	
	display.print("Moves:", 90, 40);
    1d7a:	00 e0       	ldi	r16, 0x00	; 0
    1d7c:	10 e0       	ldi	r17, 0x00	; 0
    1d7e:	28 e2       	ldi	r18, 0x28	; 40
    1d80:	30 e0       	ldi	r19, 0x00	; 0
    1d82:	4a e5       	ldi	r20, 0x5A	; 90
    1d84:	50 e0       	ldi	r21, 0x00	; 0
    1d86:	60 e8       	ldi	r22, 0x80	; 128
    1d88:	70 e0       	ldi	r23, 0x00	; 0
    1d8a:	8c e6       	ldi	r24, 0x6C	; 108
    1d8c:	91 e0       	ldi	r25, 0x01	; 1
    1d8e:	0e 94 89 18 	call	0x3112	; 0x3112 <_ZN4UTFT5printEPKciii>
	display.printNumI(moveCounter, 190, 40);
    1d92:	40 91 47 01 	lds	r20, 0x0147	; 0x800147 <moveCounter>
    1d96:	50 e0       	ldi	r21, 0x00	; 0
    1d98:	60 e0       	ldi	r22, 0x00	; 0
    1d9a:	70 e0       	ldi	r23, 0x00	; 0
    1d9c:	08 e2       	ldi	r16, 0x28	; 40
    1d9e:	10 e0       	ldi	r17, 0x00	; 0
    1da0:	2e eb       	ldi	r18, 0xBE	; 190
    1da2:	30 e0       	ldi	r19, 0x00	; 0
    1da4:	8c e6       	ldi	r24, 0x6C	; 108
    1da6:	91 e0       	ldi	r25, 0x01	; 1
    1da8:	0e 94 64 19 	call	0x32c8	; 0x32c8 <_ZN4UTFT9printNumIEliiic>
	display.print("Best moves:", 40, 60);
    1dac:	00 e0       	ldi	r16, 0x00	; 0
    1dae:	10 e0       	ldi	r17, 0x00	; 0
    1db0:	2c e3       	ldi	r18, 0x3C	; 60
    1db2:	30 e0       	ldi	r19, 0x00	; 0
    1db4:	48 e2       	ldi	r20, 0x28	; 40
    1db6:	50 e0       	ldi	r21, 0x00	; 0
    1db8:	67 e8       	ldi	r22, 0x87	; 135
    1dba:	70 e0       	ldi	r23, 0x00	; 0
    1dbc:	8c e6       	ldi	r24, 0x6C	; 108
    1dbe:	91 e0       	ldi	r25, 0x01	; 1
    1dc0:	0e 94 89 18 	call	0x3112	; 0x3112 <_ZN4UTFT5printEPKciii>
	display.printNumI(bestMoves, 240, 60);
    1dc4:	40 91 69 00 	lds	r20, 0x0069	; 0x800069 <bestMoves>
    1dc8:	50 e0       	ldi	r21, 0x00	; 0
    1dca:	60 e0       	ldi	r22, 0x00	; 0
    1dcc:	70 e0       	ldi	r23, 0x00	; 0
    1dce:	0c e3       	ldi	r16, 0x3C	; 60
    1dd0:	10 e0       	ldi	r17, 0x00	; 0
    1dd2:	20 ef       	ldi	r18, 0xF0	; 240
    1dd4:	30 e0       	ldi	r19, 0x00	; 0
    1dd6:	8c e6       	ldi	r24, 0x6C	; 108
    1dd8:	91 e0       	ldi	r25, 0x01	; 1
    1dda:	0e 94 64 19 	call	0x32c8	; 0x32c8 <_ZN4UTFT9printNumIEliiic>
		
	display.print("Time:", 70, 90);
    1dde:	00 e0       	ldi	r16, 0x00	; 0
    1de0:	10 e0       	ldi	r17, 0x00	; 0
    1de2:	2a e5       	ldi	r18, 0x5A	; 90
    1de4:	30 e0       	ldi	r19, 0x00	; 0
    1de6:	46 e4       	ldi	r20, 0x46	; 70
    1de8:	50 e0       	ldi	r21, 0x00	; 0
    1dea:	63 e9       	ldi	r22, 0x93	; 147
    1dec:	70 e0       	ldi	r23, 0x00	; 0
    1dee:	8c e6       	ldi	r24, 0x6C	; 108
    1df0:	91 e0       	ldi	r25, 0x01	; 1
    1df2:	0e 94 89 18 	call	0x3112	; 0x3112 <_ZN4UTFT5printEPKciii>
	display.printNumI(currentTime[0], 150, 90);
    1df6:	c4 e4       	ldi	r28, 0x44	; 68
    1df8:	d1 e0       	ldi	r29, 0x01	; 1
    1dfa:	48 81       	ld	r20, Y
    1dfc:	50 e0       	ldi	r21, 0x00	; 0
    1dfe:	60 e0       	ldi	r22, 0x00	; 0
    1e00:	70 e0       	ldi	r23, 0x00	; 0
    1e02:	0a e5       	ldi	r16, 0x5A	; 90
    1e04:	10 e0       	ldi	r17, 0x00	; 0
    1e06:	26 e9       	ldi	r18, 0x96	; 150
    1e08:	30 e0       	ldi	r19, 0x00	; 0
    1e0a:	8c e6       	ldi	r24, 0x6C	; 108
    1e0c:	91 e0       	ldi	r25, 0x01	; 1
    1e0e:	0e 94 64 19 	call	0x32c8	; 0x32c8 <_ZN4UTFT9printNumIEliiic>
	display.print(":", 180, 90);
    1e12:	00 e0       	ldi	r16, 0x00	; 0
    1e14:	10 e0       	ldi	r17, 0x00	; 0
    1e16:	2a e5       	ldi	r18, 0x5A	; 90
    1e18:	30 e0       	ldi	r19, 0x00	; 0
    1e1a:	44 eb       	ldi	r20, 0xB4	; 180
    1e1c:	50 e0       	ldi	r21, 0x00	; 0
    1e1e:	6e e7       	ldi	r22, 0x7E	; 126
    1e20:	70 e0       	ldi	r23, 0x00	; 0
    1e22:	8c e6       	ldi	r24, 0x6C	; 108
    1e24:	91 e0       	ldi	r25, 0x01	; 1
    1e26:	0e 94 89 18 	call	0x3112	; 0x3112 <_ZN4UTFT5printEPKciii>
	display.printNumI(currentTime[1], 190, 90);
    1e2a:	49 81       	ldd	r20, Y+1	; 0x01
    1e2c:	50 e0       	ldi	r21, 0x00	; 0
    1e2e:	60 e0       	ldi	r22, 0x00	; 0
    1e30:	70 e0       	ldi	r23, 0x00	; 0
    1e32:	0a e5       	ldi	r16, 0x5A	; 90
    1e34:	10 e0       	ldi	r17, 0x00	; 0
    1e36:	2e eb       	ldi	r18, 0xBE	; 190
    1e38:	30 e0       	ldi	r19, 0x00	; 0
    1e3a:	8c e6       	ldi	r24, 0x6C	; 108
    1e3c:	91 e0       	ldi	r25, 0x01	; 1
    1e3e:	0e 94 64 19 	call	0x32c8	; 0x32c8 <_ZN4UTFT9printNumIEliiic>
		
	display.print("Best time:", 30, 110);
    1e42:	00 e0       	ldi	r16, 0x00	; 0
    1e44:	10 e0       	ldi	r17, 0x00	; 0
    1e46:	2e e6       	ldi	r18, 0x6E	; 110
    1e48:	30 e0       	ldi	r19, 0x00	; 0
    1e4a:	4e e1       	ldi	r20, 0x1E	; 30
    1e4c:	50 e0       	ldi	r21, 0x00	; 0
    1e4e:	69 e9       	ldi	r22, 0x99	; 153
    1e50:	70 e0       	ldi	r23, 0x00	; 0
    1e52:	8c e6       	ldi	r24, 0x6C	; 108
    1e54:	91 e0       	ldi	r25, 0x01	; 1
    1e56:	0e 94 89 18 	call	0x3112	; 0x3112 <_ZN4UTFT5printEPKciii>
	display.printNumI(bestTime[0], 190, 110);
    1e5a:	c6 e6       	ldi	r28, 0x66	; 102
    1e5c:	d0 e0       	ldi	r29, 0x00	; 0
    1e5e:	48 81       	ld	r20, Y
    1e60:	50 e0       	ldi	r21, 0x00	; 0
    1e62:	60 e0       	ldi	r22, 0x00	; 0
    1e64:	70 e0       	ldi	r23, 0x00	; 0
    1e66:	0e e6       	ldi	r16, 0x6E	; 110
    1e68:	10 e0       	ldi	r17, 0x00	; 0
    1e6a:	2e eb       	ldi	r18, 0xBE	; 190
    1e6c:	30 e0       	ldi	r19, 0x00	; 0
    1e6e:	8c e6       	ldi	r24, 0x6C	; 108
    1e70:	91 e0       	ldi	r25, 0x01	; 1
    1e72:	0e 94 64 19 	call	0x32c8	; 0x32c8 <_ZN4UTFT9printNumIEliiic>
	display.print(":", 220, 110);
    1e76:	00 e0       	ldi	r16, 0x00	; 0
    1e78:	10 e0       	ldi	r17, 0x00	; 0
    1e7a:	2e e6       	ldi	r18, 0x6E	; 110
    1e7c:	30 e0       	ldi	r19, 0x00	; 0
    1e7e:	4c ed       	ldi	r20, 0xDC	; 220
    1e80:	50 e0       	ldi	r21, 0x00	; 0
    1e82:	6e e7       	ldi	r22, 0x7E	; 126
    1e84:	70 e0       	ldi	r23, 0x00	; 0
    1e86:	8c e6       	ldi	r24, 0x6C	; 108
    1e88:	91 e0       	ldi	r25, 0x01	; 1
    1e8a:	0e 94 89 18 	call	0x3112	; 0x3112 <_ZN4UTFT5printEPKciii>
	display.printNumI(bestTime[1], 230, 110);
    1e8e:	49 81       	ldd	r20, Y+1	; 0x01
    1e90:	50 e0       	ldi	r21, 0x00	; 0
    1e92:	60 e0       	ldi	r22, 0x00	; 0
    1e94:	70 e0       	ldi	r23, 0x00	; 0
    1e96:	0e e6       	ldi	r16, 0x6E	; 110
    1e98:	10 e0       	ldi	r17, 0x00	; 0
    1e9a:	26 ee       	ldi	r18, 0xE6	; 230
    1e9c:	30 e0       	ldi	r19, 0x00	; 0
    1e9e:	8c e6       	ldi	r24, 0x6C	; 108
    1ea0:	91 e0       	ldi	r25, 0x01	; 1
    1ea2:	0e 94 64 19 	call	0x32c8	; 0x32c8 <_ZN4UTFT9printNumIEliiic>
;
	display.drawRect(EXIT_X1, BUTTONS_Y1, EXIT_X2, BUTTONS_Y2);
    1ea6:	06 ee       	ldi	r16, 0xE6	; 230
    1ea8:	10 e0       	ldi	r17, 0x00	; 0
    1eaa:	20 ea       	ldi	r18, 0xA0	; 160
    1eac:	30 e0       	ldi	r19, 0x00	; 0
    1eae:	46 e9       	ldi	r20, 0x96	; 150
    1eb0:	50 e0       	ldi	r21, 0x00	; 0
    1eb2:	6a e0       	ldi	r22, 0x0A	; 10
    1eb4:	70 e0       	ldi	r23, 0x00	; 0
    1eb6:	8c e6       	ldi	r24, 0x6C	; 108
    1eb8:	91 e0       	ldi	r25, 0x01	; 1
    1eba:	0e 94 d8 15 	call	0x2bb0	; 0x2bb0 <_ZN4UTFT8drawRectEiiii>
	display.print("EXIT", EXIT_TEXT_X, BUTTONS_TEXT_Y);
    1ebe:	00 e0       	ldi	r16, 0x00	; 0
    1ec0:	10 e0       	ldi	r17, 0x00	; 0
    1ec2:	24 eb       	ldi	r18, 0xB4	; 180
    1ec4:	30 e0       	ldi	r19, 0x00	; 0
    1ec6:	4c e3       	ldi	r20, 0x3C	; 60
    1ec8:	50 e0       	ldi	r21, 0x00	; 0
    1eca:	64 ea       	ldi	r22, 0xA4	; 164
    1ecc:	70 e0       	ldi	r23, 0x00	; 0
    1ece:	8c e6       	ldi	r24, 0x6C	; 108
    1ed0:	91 e0       	ldi	r25, 0x01	; 1
    1ed2:	0e 94 89 18 	call	0x3112	; 0x3112 <_ZN4UTFT5printEPKciii>
	display.drawRect(NEXT_X1, BUTTONS_Y1, NEXT_X2, BUTTONS_Y2);
    1ed6:	06 ee       	ldi	r16, 0xE6	; 230
    1ed8:	10 e0       	ldi	r17, 0x00	; 0
    1eda:	26 e3       	ldi	r18, 0x36	; 54
    1edc:	31 e0       	ldi	r19, 0x01	; 1
    1ede:	46 e9       	ldi	r20, 0x96	; 150
    1ee0:	50 e0       	ldi	r21, 0x00	; 0
    1ee2:	61 ea       	ldi	r22, 0xA1	; 161
    1ee4:	70 e0       	ldi	r23, 0x00	; 0
    1ee6:	8c e6       	ldi	r24, 0x6C	; 108
    1ee8:	91 e0       	ldi	r25, 0x01	; 1
    1eea:	0e 94 d8 15 	call	0x2bb0	; 0x2bb0 <_ZN4UTFT8drawRectEiiii>
	display.print("NEXT", NEXT_TEXT_X, BUTTONS_TEXT_Y);	  
    1eee:	00 e0       	ldi	r16, 0x00	; 0
    1ef0:	10 e0       	ldi	r17, 0x00	; 0
    1ef2:	24 eb       	ldi	r18, 0xB4	; 180
    1ef4:	30 e0       	ldi	r19, 0x00	; 0
    1ef6:	48 ec       	ldi	r20, 0xC8	; 200
    1ef8:	50 e0       	ldi	r21, 0x00	; 0
    1efa:	69 ea       	ldi	r22, 0xA9	; 169
    1efc:	70 e0       	ldi	r23, 0x00	; 0
    1efe:	8c e6       	ldi	r24, 0x6C	; 108
    1f00:	91 e0       	ldi	r25, 0x01	; 1
    1f02:	0e 94 89 18 	call	0x3112	; 0x3112 <_ZN4UTFT5printEPKciii>
}
    1f06:	df 91       	pop	r29
    1f08:	cf 91       	pop	r28
    1f0a:	1f 91       	pop	r17
    1f0c:	0f 91       	pop	r16
    1f0e:	ff 90       	pop	r15
    1f10:	ef 90       	pop	r14
    1f12:	cf 90       	pop	r12
    1f14:	08 95       	ret

00001f16 <_Z15endGameGetInputv>:

// odabir ako ce se nastaviti s igrom ili se vratiti na glavni izbornik
uint8_t endGameGetInput() {
    1f16:	cf 93       	push	r28
    1f18:	df 93       	push	r29
	while(!Touched());
    1f1a:	0e 94 a9 09 	call	0x1352	; 0x1352 <_Z7Touchedv>
    1f1e:	88 23       	and	r24, r24
    1f20:	e1 f3       	breq	.-8      	; 0x1f1a <_Z15endGameGetInputv+0x4>
	uint16_t x = getX();
    1f22:	0e 94 af 09 	call	0x135e	; 0x135e <_Z4getXv>
    1f26:	ec 01       	movw	r28, r24
	uint16_t y = getY();
    1f28:	0e 94 e5 09 	call	0x13ca	; 0x13ca <_Z4getYv>
	
	if ((x > EXIT_X1) && (x < EXIT_X2) && (y > BUTTONS_Y1) && (y < BUTTONS_Y2)) return 1;
    1f2c:	9e 01       	movw	r18, r28
    1f2e:	2b 50       	subi	r18, 0x0B	; 11
    1f30:	31 09       	sbc	r19, r1
    1f32:	25 39       	cpi	r18, 0x95	; 149
    1f34:	31 05       	cpc	r19, r1
    1f36:	30 f4       	brcc	.+12     	; 0x1f44 <_Z15endGameGetInputv+0x2e>
    1f38:	87 39       	cpi	r24, 0x97	; 151
    1f3a:	91 05       	cpc	r25, r1
    1f3c:	18 f0       	brcs	.+6      	; 0x1f44 <_Z15endGameGetInputv+0x2e>
    1f3e:	86 3e       	cpi	r24, 0xE6	; 230
    1f40:	91 05       	cpc	r25, r1
    1f42:	68 f0       	brcs	.+26     	; 0x1f5e <_Z15endGameGetInputv+0x48>
	else if ((x > NEXT_X1) && (x < NEXT_X2) && (y > BUTTONS_Y1) && (y < BUTTONS_Y2)) return 2;
    1f44:	c2 5a       	subi	r28, 0xA2	; 162
    1f46:	d1 09       	sbc	r29, r1
    1f48:	c4 39       	cpi	r28, 0x94	; 148
    1f4a:	d1 05       	cpc	r29, r1
    1f4c:	50 f4       	brcc	.+20     	; 0x1f62 <_Z15endGameGetInputv+0x4c>
    1f4e:	87 39       	cpi	r24, 0x97	; 151
    1f50:	91 05       	cpc	r25, r1
    1f52:	48 f0       	brcs	.+18     	; 0x1f66 <_Z15endGameGetInputv+0x50>
    1f54:	86 3e       	cpi	r24, 0xE6	; 230
    1f56:	91 05       	cpc	r25, r1
    1f58:	40 f0       	brcs	.+16     	; 0x1f6a <_Z15endGameGetInputv+0x54>
	else return 0;
    1f5a:	80 e0       	ldi	r24, 0x00	; 0
    1f5c:	07 c0       	rjmp	.+14     	; 0x1f6c <_Z15endGameGetInputv+0x56>
uint8_t endGameGetInput() {
	while(!Touched());
	uint16_t x = getX();
	uint16_t y = getY();
	
	if ((x > EXIT_X1) && (x < EXIT_X2) && (y > BUTTONS_Y1) && (y < BUTTONS_Y2)) return 1;
    1f5e:	81 e0       	ldi	r24, 0x01	; 1
    1f60:	05 c0       	rjmp	.+10     	; 0x1f6c <_Z15endGameGetInputv+0x56>
	else if ((x > NEXT_X1) && (x < NEXT_X2) && (y > BUTTONS_Y1) && (y < BUTTONS_Y2)) return 2;
	else return 0;
    1f62:	80 e0       	ldi	r24, 0x00	; 0
    1f64:	03 c0       	rjmp	.+6      	; 0x1f6c <_Z15endGameGetInputv+0x56>
    1f66:	80 e0       	ldi	r24, 0x00	; 0
    1f68:	01 c0       	rjmp	.+2      	; 0x1f6c <_Z15endGameGetInputv+0x56>
	while(!Touched());
	uint16_t x = getX();
	uint16_t y = getY();
	
	if ((x > EXIT_X1) && (x < EXIT_X2) && (y > BUTTONS_Y1) && (y < BUTTONS_Y2)) return 1;
	else if ((x > NEXT_X1) && (x < NEXT_X2) && (y > BUTTONS_Y1) && (y < BUTTONS_Y2)) return 2;
    1f6a:	82 e0       	ldi	r24, 0x02	; 2
	else return 0;
}
    1f6c:	df 91       	pop	r29
    1f6e:	cf 91       	pop	r28
    1f70:	08 95       	ret

00001f72 <_Z9startGamev>:


// start ekran, sluzi kao tranizicija i nasumicno generiranje ploce na temelju gdje dodirnemo
void startGame() {
    1f72:	0f 93       	push	r16
    1f74:	1f 93       	push	r17
    1f76:	cf 93       	push	r28
    1f78:	df 93       	push	r29
	display.clrScr();
    1f7a:	8c e6       	ldi	r24, 0x6C	; 108
    1f7c:	91 e0       	ldi	r25, 0x01	; 1
    1f7e:	0e 94 e0 14 	call	0x29c0	; 0x29c0 <_ZN4UTFT6clrScrEv>
	display.print("Tap to start", CENTER, 120);	
    1f82:	00 e0       	ldi	r16, 0x00	; 0
    1f84:	10 e0       	ldi	r17, 0x00	; 0
    1f86:	28 e7       	ldi	r18, 0x78	; 120
    1f88:	30 e0       	ldi	r19, 0x00	; 0
    1f8a:	4e e0       	ldi	r20, 0x0E	; 14
    1f8c:	57 e2       	ldi	r21, 0x27	; 39
    1f8e:	6e ea       	ldi	r22, 0xAE	; 174
    1f90:	70 e0       	ldi	r23, 0x00	; 0
    1f92:	8c e6       	ldi	r24, 0x6C	; 108
    1f94:	91 e0       	ldi	r25, 0x01	; 1
    1f96:	0e 94 89 18 	call	0x3112	; 0x3112 <_ZN4UTFT5printEPKciii>
    1f9a:	2f ef       	ldi	r18, 0xFF	; 255
    1f9c:	8f e7       	ldi	r24, 0x7F	; 127
    1f9e:	94 e0       	ldi	r25, 0x04	; 4
    1fa0:	21 50       	subi	r18, 0x01	; 1
    1fa2:	80 40       	sbci	r24, 0x00	; 0
    1fa4:	90 40       	sbci	r25, 0x00	; 0
    1fa6:	e1 f7       	brne	.-8      	; 0x1fa0 <_Z9startGamev+0x2e>
    1fa8:	00 c0       	rjmp	.+0      	; 0x1faa <_Z9startGamev+0x38>
    1faa:	00 00       	nop
	
	_delay_ms(200); //debounce cekanjem
	while(!Touched());
    1fac:	0e 94 a9 09 	call	0x1352	; 0x1352 <_Z7Touchedv>
    1fb0:	88 23       	and	r24, r24
    1fb2:	e1 f3       	breq	.-8      	; 0x1fac <_Z9startGamev+0x3a>
	uint16_t x = getX();
    1fb4:	0e 94 af 09 	call	0x135e	; 0x135e <_Z4getXv>
    1fb8:	ec 01       	movw	r28, r24
	uint16_t y = getY();
    1fba:	0e 94 e5 09 	call	0x13ca	; 0x13ca <_Z4getYv>
	srand(x + y);       
    1fbe:	8c 0f       	add	r24, r28
    1fc0:	9d 1f       	adc	r25, r29
    1fc2:	0e 94 47 1e 	call	0x3c8e	; 0x3c8e <srand>
}
    1fc6:	df 91       	pop	r29
    1fc8:	cf 91       	pop	r28
    1fca:	1f 91       	pop	r17
    1fcc:	0f 91       	pop	r16
    1fce:	08 95       	ret

00001fd0 <_Z17challengeGameOverv>:

// ekran za kraj igre u izazovnom nacinu rada (pobjeda ili izgubljena igra), vraca se na glavni izbornik
void challengeGameOver() {
    1fd0:	0f 93       	push	r16
    1fd2:	1f 93       	push	r17
	started = 0; 
    1fd4:	10 92 43 01 	sts	0x0143, r1	; 0x800143 <started>
	
	display.clrScr();
    1fd8:	8c e6       	ldi	r24, 0x6C	; 108
    1fda:	91 e0       	ldi	r25, 0x01	; 1
    1fdc:	0e 94 e0 14 	call	0x29c0	; 0x29c0 <_ZN4UTFT6clrScrEv>
	if (challengeEndFlag == 1) display.print("VICTORY", CENTER, 80);
    1fe0:	80 91 3e 01 	lds	r24, 0x013E	; 0x80013e <__data_end>
    1fe4:	81 30       	cpi	r24, 0x01	; 1
    1fe6:	69 f4       	brne	.+26     	; 0x2002 <_Z17challengeGameOverv+0x32>
    1fe8:	00 e0       	ldi	r16, 0x00	; 0
    1fea:	10 e0       	ldi	r17, 0x00	; 0
    1fec:	20 e5       	ldi	r18, 0x50	; 80
    1fee:	30 e0       	ldi	r19, 0x00	; 0
    1ff0:	4e e0       	ldi	r20, 0x0E	; 14
    1ff2:	57 e2       	ldi	r21, 0x27	; 39
    1ff4:	6b eb       	ldi	r22, 0xBB	; 187
    1ff6:	70 e0       	ldi	r23, 0x00	; 0
    1ff8:	8c e6       	ldi	r24, 0x6C	; 108
    1ffa:	91 e0       	ldi	r25, 0x01	; 1
    1ffc:	0e 94 89 18 	call	0x3112	; 0x3112 <_ZN4UTFT5printEPKciii>
    2000:	31 c0       	rjmp	.+98     	; 0x2064 <_Z17challengeGameOverv+0x94>
	else if (challengeEndFlag == 2) {
    2002:	82 30       	cpi	r24, 0x02	; 2
    2004:	b9 f4       	brne	.+46     	; 0x2034 <_Z17challengeGameOverv+0x64>
		display.print("GAME OVER", CENTER, 80);
    2006:	00 e0       	ldi	r16, 0x00	; 0
    2008:	10 e0       	ldi	r17, 0x00	; 0
    200a:	20 e5       	ldi	r18, 0x50	; 80
    200c:	30 e0       	ldi	r19, 0x00	; 0
    200e:	4e e0       	ldi	r20, 0x0E	; 14
    2010:	57 e2       	ldi	r21, 0x27	; 39
    2012:	63 ec       	ldi	r22, 0xC3	; 195
    2014:	70 e0       	ldi	r23, 0x00	; 0
    2016:	8c e6       	ldi	r24, 0x6C	; 108
    2018:	91 e0       	ldi	r25, 0x01	; 1
    201a:	0e 94 89 18 	call	0x3112	; 0x3112 <_ZN4UTFT5printEPKciii>
		display.print("out of moves", CENTER, 100);
    201e:	24 e6       	ldi	r18, 0x64	; 100
    2020:	30 e0       	ldi	r19, 0x00	; 0
    2022:	4e e0       	ldi	r20, 0x0E	; 14
    2024:	57 e2       	ldi	r21, 0x27	; 39
    2026:	6d ec       	ldi	r22, 0xCD	; 205
    2028:	70 e0       	ldi	r23, 0x00	; 0
    202a:	8c e6       	ldi	r24, 0x6C	; 108
    202c:	91 e0       	ldi	r25, 0x01	; 1
    202e:	0e 94 89 18 	call	0x3112	; 0x3112 <_ZN4UTFT5printEPKciii>
    2032:	18 c0       	rjmp	.+48     	; 0x2064 <_Z17challengeGameOverv+0x94>
	} else if (challengeEndFlag == 3) {
    2034:	83 30       	cpi	r24, 0x03	; 3
    2036:	b1 f4       	brne	.+44     	; 0x2064 <_Z17challengeGameOverv+0x94>
		display.print("GAME OVER", CENTER, 80);
    2038:	00 e0       	ldi	r16, 0x00	; 0
    203a:	10 e0       	ldi	r17, 0x00	; 0
    203c:	20 e5       	ldi	r18, 0x50	; 80
    203e:	30 e0       	ldi	r19, 0x00	; 0
    2040:	4e e0       	ldi	r20, 0x0E	; 14
    2042:	57 e2       	ldi	r21, 0x27	; 39
    2044:	63 ec       	ldi	r22, 0xC3	; 195
    2046:	70 e0       	ldi	r23, 0x00	; 0
    2048:	8c e6       	ldi	r24, 0x6C	; 108
    204a:	91 e0       	ldi	r25, 0x01	; 1
    204c:	0e 94 89 18 	call	0x3112	; 0x3112 <_ZN4UTFT5printEPKciii>
		display.print("time ran out", CENTER, 100);
    2050:	24 e6       	ldi	r18, 0x64	; 100
    2052:	30 e0       	ldi	r19, 0x00	; 0
    2054:	4e e0       	ldi	r20, 0x0E	; 14
    2056:	57 e2       	ldi	r21, 0x27	; 39
    2058:	6a ed       	ldi	r22, 0xDA	; 218
    205a:	70 e0       	ldi	r23, 0x00	; 0
    205c:	8c e6       	ldi	r24, 0x6C	; 108
    205e:	91 e0       	ldi	r25, 0x01	; 1
    2060:	0e 94 89 18 	call	0x3112	; 0x3112 <_ZN4UTFT5printEPKciii>
	}
	display.print("tap to return", CENTER, 160);
    2064:	00 e0       	ldi	r16, 0x00	; 0
    2066:	10 e0       	ldi	r17, 0x00	; 0
    2068:	20 ea       	ldi	r18, 0xA0	; 160
    206a:	30 e0       	ldi	r19, 0x00	; 0
    206c:	4e e0       	ldi	r20, 0x0E	; 14
    206e:	57 e2       	ldi	r21, 0x27	; 39
    2070:	67 ee       	ldi	r22, 0xE7	; 231
    2072:	70 e0       	ldi	r23, 0x00	; 0
    2074:	8c e6       	ldi	r24, 0x6C	; 108
    2076:	91 e0       	ldi	r25, 0x01	; 1
    2078:	0e 94 89 18 	call	0x3112	; 0x3112 <_ZN4UTFT5printEPKciii>
	display.print("to main menu", CENTER, 180);
    207c:	24 eb       	ldi	r18, 0xB4	; 180
    207e:	30 e0       	ldi	r19, 0x00	; 0
    2080:	4e e0       	ldi	r20, 0x0E	; 14
    2082:	57 e2       	ldi	r21, 0x27	; 39
    2084:	65 ef       	ldi	r22, 0xF5	; 245
    2086:	70 e0       	ldi	r23, 0x00	; 0
    2088:	8c e6       	ldi	r24, 0x6C	; 108
    208a:	91 e0       	ldi	r25, 0x01	; 1
    208c:	0e 94 89 18 	call	0x3112	; 0x3112 <_ZN4UTFT5printEPKciii>
    2090:	2f ef       	ldi	r18, 0xFF	; 255
    2092:	8f e3       	ldi	r24, 0x3F	; 63
    2094:	92 e0       	ldi	r25, 0x02	; 2
    2096:	21 50       	subi	r18, 0x01	; 1
    2098:	80 40       	sbci	r24, 0x00	; 0
    209a:	90 40       	sbci	r25, 0x00	; 0
    209c:	e1 f7       	brne	.-8      	; 0x2096 <_Z17challengeGameOverv+0xc6>
    209e:	00 c0       	rjmp	.+0      	; 0x20a0 <_Z17challengeGameOverv+0xd0>
    20a0:	00 00       	nop
	
	_delay_ms(100);
	while(!Touched());
    20a2:	0e 94 a9 09 	call	0x1352	; 0x1352 <_Z7Touchedv>
    20a6:	88 23       	and	r24, r24
    20a8:	e1 f3       	breq	.-8      	; 0x20a2 <_Z17challengeGameOverv+0xd2>
	memoryResetVariables();
    20aa:	0e 94 3e 0e 	call	0x1c7c	; 0x1c7c <_Z20memoryResetVariablesv>
	challengeEndFlag = 0;
    20ae:	10 92 3e 01 	sts	0x013E, r1	; 0x80013e <__data_end>
	menu = 0;
    20b2:	10 92 40 01 	sts	0x0140, r1	; 0x800140 <menu>
	return;
}
    20b6:	1f 91       	pop	r17
    20b8:	0f 91       	pop	r16
    20ba:	08 95       	ret

000020bc <_Z10memoryGamev>:

// glavni game loop
void memoryGame() {
    20bc:	cf 92       	push	r12
    20be:	ef 92       	push	r14
    20c0:	ff 92       	push	r15
    20c2:	0f 93       	push	r16
    20c4:	1f 93       	push	r17
    20c6:	cf 93       	push	r28
	uint8_t input;
	
	while(1) {	
		// ako su otvorene dvije karte, provjeri ako su iste i povecaj broj poteza 	
		if (state == 2) {
    20c8:	80 91 49 01 	lds	r24, 0x0149	; 0x800149 <state>
    20cc:	82 30       	cpi	r24, 0x02	; 2
    20ce:	09 f5       	brne	.+66     	; 0x2112 <_Z10memoryGamev+0x56>
			checkOpen();
    20d0:	0e 94 20 0d 	call	0x1a40	; 0x1a40 <_Z9checkOpenv>
			state = c1 = c2 = 0;
    20d4:	10 92 4a 01 	sts	0x014A, r1	; 0x80014a <c2>
    20d8:	10 92 4b 01 	sts	0x014B, r1	; 0x80014b <c1>
    20dc:	10 92 49 01 	sts	0x0149, r1	; 0x800149 <state>
			moveCounter++;
    20e0:	80 91 47 01 	lds	r24, 0x0147	; 0x800147 <moveCounter>
    20e4:	8f 5f       	subi	r24, 0xFF	; 255
    20e6:	80 93 47 01 	sts	0x0147, r24	; 0x800147 <moveCounter>
			
			// ako smo u izazovnom nacinu, provjeri ako smo ostali bez poteza i zavrsi igru
			if (challengeMode) {
    20ea:	90 91 3f 01 	lds	r25, 0x013F	; 0x80013f <challengeMode>
    20ee:	99 23       	and	r25, r25
    20f0:	81 f0       	breq	.+32     	; 0x2112 <_Z10memoryGamev+0x56>
				if (challengeMoves - moveCounter <= 0) {
    20f2:	20 91 65 00 	lds	r18, 0x0065	; 0x800065 <challengeMoves>
    20f6:	30 e0       	ldi	r19, 0x00	; 0
    20f8:	a9 01       	movw	r20, r18
    20fa:	48 1b       	sub	r20, r24
    20fc:	51 09       	sbc	r21, r1
    20fe:	ca 01       	movw	r24, r20
    2100:	18 16       	cp	r1, r24
    2102:	19 06       	cpc	r1, r25
    2104:	34 f0       	brlt	.+12     	; 0x2112 <_Z10memoryGamev+0x56>
					challengeEndFlag = 2;
    2106:	82 e0       	ldi	r24, 0x02	; 2
    2108:	80 93 3e 01 	sts	0x013E, r24	; 0x80013e <__data_end>
					challengeGameOver();
    210c:	0e 94 e8 0f 	call	0x1fd0	; 0x1fd0 <_Z17challengeGameOverv>
					return;
    2110:	e3 c0       	rjmp	.+454    	; 0x22d8 <_Z10memoryGamev+0x21c>
				}
			}
		}
		
		// ocisti prijasnji zapis poteza i ovisno o nacinu rada ispisi broj napravljenih ili preostalih poteza
		display.setColor(0, 0, 0);
    2112:	20 e0       	ldi	r18, 0x00	; 0
    2114:	40 e0       	ldi	r20, 0x00	; 0
    2116:	60 e0       	ldi	r22, 0x00	; 0
    2118:	8c e6       	ldi	r24, 0x6C	; 108
    211a:	91 e0       	ldi	r25, 0x01	; 1
    211c:	0e 94 16 15 	call	0x2a2c	; 0x2a2c <_ZN4UTFT8setColorEhhh>
		display.fillRect(0,75,45,100);
    2120:	04 e6       	ldi	r16, 0x64	; 100
    2122:	10 e0       	ldi	r17, 0x00	; 0
    2124:	2d e2       	ldi	r18, 0x2D	; 45
    2126:	30 e0       	ldi	r19, 0x00	; 0
    2128:	4b e4       	ldi	r20, 0x4B	; 75
    212a:	50 e0       	ldi	r21, 0x00	; 0
    212c:	60 e0       	ldi	r22, 0x00	; 0
    212e:	70 e0       	ldi	r23, 0x00	; 0
    2130:	8c e6       	ldi	r24, 0x6C	; 108
    2132:	91 e0       	ldi	r25, 0x01	; 1
    2134:	0e 94 80 14 	call	0x2900	; 0x2900 <_ZN4UTFT8fillRectEiiii>
		display.setColor(255, 255, 255);
    2138:	2f ef       	ldi	r18, 0xFF	; 255
    213a:	4f ef       	ldi	r20, 0xFF	; 255
    213c:	6f ef       	ldi	r22, 0xFF	; 255
    213e:	8c e6       	ldi	r24, 0x6C	; 108
    2140:	91 e0       	ldi	r25, 0x01	; 1
    2142:	0e 94 16 15 	call	0x2a2c	; 0x2a2c <_ZN4UTFT8setColorEhhh>
		if (challengeMode) display.printNumI(challengeMoves - moveCounter, 0, 80);
    2146:	80 91 3f 01 	lds	r24, 0x013F	; 0x80013f <challengeMode>
    214a:	88 23       	and	r24, r24
    214c:	c9 f0       	breq	.+50     	; 0x2180 <_Z10memoryGamev+0xc4>
    214e:	40 91 65 00 	lds	r20, 0x0065	; 0x800065 <challengeMoves>
    2152:	50 e0       	ldi	r21, 0x00	; 0
    2154:	80 91 47 01 	lds	r24, 0x0147	; 0x800147 <moveCounter>
    2158:	48 1b       	sub	r20, r24
    215a:	51 09       	sbc	r21, r1
    215c:	05 2e       	mov	r0, r21
    215e:	00 0c       	add	r0, r0
    2160:	66 0b       	sbc	r22, r22
    2162:	77 0b       	sbc	r23, r23
    2164:	68 94       	set
    2166:	cc 24       	eor	r12, r12
    2168:	c5 f8       	bld	r12, 5
    216a:	e1 2c       	mov	r14, r1
    216c:	f1 2c       	mov	r15, r1
    216e:	00 e5       	ldi	r16, 0x50	; 80
    2170:	10 e0       	ldi	r17, 0x00	; 0
    2172:	20 e0       	ldi	r18, 0x00	; 0
    2174:	30 e0       	ldi	r19, 0x00	; 0
    2176:	8c e6       	ldi	r24, 0x6C	; 108
    2178:	91 e0       	ldi	r25, 0x01	; 1
    217a:	0e 94 64 19 	call	0x32c8	; 0x32c8 <_ZN4UTFT9printNumIEliiic>
    217e:	12 c0       	rjmp	.+36     	; 0x21a4 <_Z10memoryGamev+0xe8>
		else display.printNumI(moveCounter, 0, 80);
    2180:	40 91 47 01 	lds	r20, 0x0147	; 0x800147 <moveCounter>
    2184:	50 e0       	ldi	r21, 0x00	; 0
    2186:	60 e0       	ldi	r22, 0x00	; 0
    2188:	70 e0       	ldi	r23, 0x00	; 0
    218a:	68 94       	set
    218c:	cc 24       	eor	r12, r12
    218e:	c5 f8       	bld	r12, 5
    2190:	e1 2c       	mov	r14, r1
    2192:	f1 2c       	mov	r15, r1
    2194:	00 e5       	ldi	r16, 0x50	; 80
    2196:	10 e0       	ldi	r17, 0x00	; 0
    2198:	20 e0       	ldi	r18, 0x00	; 0
    219a:	30 e0       	ldi	r19, 0x00	; 0
    219c:	8c e6       	ldi	r24, 0x6C	; 108
    219e:	91 e0       	ldi	r25, 0x01	; 1
    21a0:	0e 94 64 19 	call	0x32c8	; 0x32c8 <_ZN4UTFT9printNumIEliiic>
		
		// ako smo pogodili svih osam parova, povecaj broj rundi i iskljuci igru, ispisi ekran za kraj igre i resetiraj varijable za rundu
		if (matched == 8) {
    21a4:	80 91 48 01 	lds	r24, 0x0148	; 0x800148 <matched>
    21a8:	88 30       	cpi	r24, 0x08	; 8
    21aa:	61 f5       	brne	.+88     	; 0x2204 <_Z10memoryGamev+0x148>
			started = 0;
    21ac:	10 92 43 01 	sts	0x0143, r1	; 0x800143 <started>
			roundCounter++;
    21b0:	80 91 42 01 	lds	r24, 0x0142	; 0x800142 <roundCounter>
    21b4:	8f 5f       	subi	r24, 0xFF	; 255
    21b6:	80 93 42 01 	sts	0x0142, r24	; 0x800142 <roundCounter>
			
			memoryEndGame();
    21ba:	0e 94 68 0e 	call	0x1cd0	; 0x1cd0 <_Z13memoryEndGamev>
			memoryResetVariables();	  
    21be:	0e 94 3e 0e 	call	0x1c7c	; 0x1c7c <_Z20memoryResetVariablesv>
			
			// ako smo u izazovnom nacinu rada, smanji broj dozvoljenih poteza za 1 i dozvoljeno vrijeme za CHALLENGE_STEP, ako je broj runde jednak tajanju igre, izadji iz igre
			if (challengeMode) {
    21c2:	80 91 3f 01 	lds	r24, 0x013F	; 0x80013f <challengeMode>
    21c6:	88 23       	and	r24, r24
    21c8:	a1 f0       	breq	.+40     	; 0x21f2 <_Z10memoryGamev+0x136>
				challengeMoves--;
    21ca:	80 91 65 00 	lds	r24, 0x0065	; 0x800065 <challengeMoves>
    21ce:	81 50       	subi	r24, 0x01	; 1
    21d0:	80 93 65 00 	sts	0x0065, r24	; 0x800065 <challengeMoves>
				challengeTime -= CHALLENGE_STEP;
    21d4:	80 91 64 00 	lds	r24, 0x0064	; 0x800064 <challengeTime>
    21d8:	83 50       	subi	r24, 0x03	; 3
    21da:	80 93 64 00 	sts	0x0064, r24	; 0x800064 <challengeTime>
				if (roundCounter == CHALLENGE_LENGTH) {
    21de:	80 91 42 01 	lds	r24, 0x0142	; 0x800142 <roundCounter>
    21e2:	8e 31       	cpi	r24, 0x1E	; 30
    21e4:	31 f4       	brne	.+12     	; 0x21f2 <_Z10memoryGamev+0x136>
					challengeEndFlag = 1;
    21e6:	81 e0       	ldi	r24, 0x01	; 1
    21e8:	80 93 3e 01 	sts	0x013E, r24	; 0x80013e <__data_end>
					challengeGameOver();
    21ec:	0e 94 e8 0f 	call	0x1fd0	; 0x1fd0 <_Z17challengeGameOverv>
					return;
    21f0:	73 c0       	rjmp	.+230    	; 0x22d8 <_Z10memoryGamev+0x21c>
				}
			}
			
			// cekanje na ekranu za kraj igre, moze se vratiti na glavni izbornik ili ici u sljedecu rundu
			do {
				input = endGameGetInput();
    21f2:	0e 94 8b 0f 	call	0x1f16	; 0x1f16 <_Z15endGameGetInputv>
				if (input == 1) {
    21f6:	81 30       	cpi	r24, 0x01	; 1
    21f8:	19 f4       	brne	.+6      	; 0x2200 <_Z10memoryGamev+0x144>
					menu = 0;
    21fa:	10 92 40 01 	sts	0x0140, r1	; 0x800140 <menu>
					return;
    21fe:	6c c0       	rjmp	.+216    	; 0x22d8 <_Z10memoryGamev+0x21c>
				}
			} while (input == 0);
    2200:	88 23       	and	r24, r24
    2202:	b9 f3       	breq	.-18     	; 0x21f2 <_Z10memoryGamev+0x136>
		}
		input = memoryGetInput();
    2204:	0e 94 5f 0b 	call	0x16be	; 0x16be <_Z14memoryGetInputv>
    2208:	c8 2f       	mov	r28, r24
		
		if (!started) {                                           //inicijalizira stanje igre pri prvom pokretanju			
    220a:	80 91 43 01 	lds	r24, 0x0143	; 0x800143 <started>
    220e:	81 11       	cpse	r24, r1
    2210:	08 c0       	rjmp	.+16     	; 0x2222 <_Z10memoryGamev+0x166>
			startGame();
    2212:	0e 94 b9 0f 	call	0x1f72	; 0x1f72 <_Z9startGamev>
			memoryInit();
    2216:	0e 94 c3 0d 	call	0x1b86	; 0x1b86 <_Z10memoryInitv>
			started = 1;
    221a:	81 e0       	ldi	r24, 0x01	; 1
    221c:	80 93 43 01 	sts	0x0143, r24	; 0x800143 <started>
    2220:	51 c0       	rjmp	.+162    	; 0x22c4 <_Z10memoryGamev+0x208>
		} else if (input == 20) {                                 // povratak na glavni izbornik i resetiranje varijabli runde
    2222:	c4 31       	cpi	r28, 0x14	; 20
    2224:	39 f4       	brne	.+14     	; 0x2234 <_Z10memoryGamev+0x178>
			menu = 0;
    2226:	10 92 40 01 	sts	0x0140, r1	; 0x800140 <menu>
			started = 0;
    222a:	10 92 43 01 	sts	0x0143, r1	; 0x800143 <started>
			memoryResetVariables();
    222e:	0e 94 3e 0e 	call	0x1c7c	; 0x1c7c <_Z20memoryResetVariablesv>
			return;
    2232:	52 c0       	rjmp	.+164    	; 0x22d8 <_Z10memoryGamev+0x21c>
		} else if (input > 0 && started && !(control[input-1])) { // ako igra vec traje, pritisnut je ekran i karta nije vec pogodjena, otvori kartu
    2234:	cc 23       	and	r28, r28
    2236:	09 f4       	brne	.+2      	; 0x223a <_Z10memoryGamev+0x17e>
    2238:	45 c0       	rjmp	.+138    	; 0x22c4 <_Z10memoryGamev+0x208>
    223a:	88 23       	and	r24, r24
    223c:	09 f4       	brne	.+2      	; 0x2240 <_Z10memoryGamev+0x184>
    223e:	42 c0       	rjmp	.+132    	; 0x22c4 <_Z10memoryGamev+0x208>
    2240:	0c 2f       	mov	r16, r28
    2242:	10 e0       	ldi	r17, 0x00	; 0
    2244:	01 50       	subi	r16, 0x01	; 1
    2246:	11 09       	sbc	r17, r1
    2248:	f8 01       	movw	r30, r16
    224a:	e4 5b       	subi	r30, 0xB4	; 180
    224c:	fe 4f       	sbci	r31, 0xFE	; 254
    224e:	80 81       	ld	r24, Z
    2250:	81 11       	cpse	r24, r1
    2252:	38 c0       	rjmp	.+112    	; 0x22c4 <_Z10memoryGamev+0x208>
			if (challengeMode && challengeEndFlag == 3) {         // ako smo u challenge mode i vrijeme je isteklo, izadji iz igre
    2254:	80 91 3f 01 	lds	r24, 0x013F	; 0x80013f <challengeMode>
    2258:	88 23       	and	r24, r24
    225a:	39 f0       	breq	.+14     	; 0x226a <_Z10memoryGamev+0x1ae>
    225c:	80 91 3e 01 	lds	r24, 0x013E	; 0x80013e <__data_end>
    2260:	83 30       	cpi	r24, 0x03	; 3
    2262:	19 f4       	brne	.+6      	; 0x226a <_Z10memoryGamev+0x1ae>
				challengeGameOver();
    2264:	0e 94 e8 0f 	call	0x1fd0	; 0x1fd0 <_Z17challengeGameOverv>
				return;
    2268:	37 c0       	rjmp	.+110    	; 0x22d8 <_Z10memoryGamev+0x21c>
			}
			
			revealCard(input);
    226a:	8c 2f       	mov	r24, r28
    226c:	0e 94 64 0d 	call	0x1ac8	; 0x1ac8 <_Z10revealCardh>
			
			if (state == 0 && control[input-1] == 0) {            // nisu trenutno otvorene karte, ne smijemo otvarati vec pogodjenu kartu
    2270:	80 91 49 01 	lds	r24, 0x0149	; 0x800149 <state>
    2274:	81 11       	cpse	r24, r1
    2276:	0e c0       	rjmp	.+28     	; 0x2294 <_Z10memoryGamev+0x1d8>
    2278:	f8 01       	movw	r30, r16
    227a:	e4 5b       	subi	r30, 0xB4	; 180
    227c:	fe 4f       	sbci	r31, 0xFE	; 254
    227e:	90 81       	ld	r25, Z
    2280:	91 11       	cpse	r25, r1
    2282:	08 c0       	rjmp	.+16     	; 0x2294 <_Z10memoryGamev+0x1d8>
				c1 = input;
    2284:	c0 93 4b 01 	sts	0x014B, r28	; 0x80014b <c1>
			    if (control[c1-1] == 0) state = 1;                // promjena stanja jedino ako je u c1 spremljena karta koja nije pogodjena
    2288:	91 11       	cpse	r25, r1
    228a:	1c c0       	rjmp	.+56     	; 0x22c4 <_Z10memoryGamev+0x208>
    228c:	81 e0       	ldi	r24, 0x01	; 1
    228e:	80 93 49 01 	sts	0x0149, r24	; 0x800149 <state>
    2292:	18 c0       	rjmp	.+48     	; 0x22c4 <_Z10memoryGamev+0x208>
			} else if (state == 1 && control[c1-1] == 0) {        // otvorena jedna karta, ne smijemo otvarati vec pogodjenu kartu
    2294:	81 30       	cpi	r24, 0x01	; 1
    2296:	b1 f4       	brne	.+44     	; 0x22c4 <_Z10memoryGamev+0x208>
    2298:	80 91 4b 01 	lds	r24, 0x014B	; 0x80014b <c1>
    229c:	e8 2f       	mov	r30, r24
    229e:	f0 e0       	ldi	r31, 0x00	; 0
    22a0:	e5 5b       	subi	r30, 0xB5	; 181
    22a2:	fe 4f       	sbci	r31, 0xFE	; 254
    22a4:	90 81       	ld	r25, Z
    22a6:	91 11       	cpse	r25, r1
    22a8:	0d c0       	rjmp	.+26     	; 0x22c4 <_Z10memoryGamev+0x208>
				c2 = input;
    22aa:	c0 93 4a 01 	sts	0x014A, r28	; 0x80014a <c2>
				if (c1 != c2 && control[c2-1] == 0) state = 2;    // promjena stanja jedino ako je u c1 spremljena karta koja nije pogodjena i c1 i c2 su razliciti
    22ae:	c8 17       	cp	r28, r24
    22b0:	49 f0       	breq	.+18     	; 0x22c4 <_Z10memoryGamev+0x208>
    22b2:	f8 01       	movw	r30, r16
    22b4:	e4 5b       	subi	r30, 0xB4	; 180
    22b6:	fe 4f       	sbci	r31, 0xFE	; 254
    22b8:	80 81       	ld	r24, Z
    22ba:	81 11       	cpse	r24, r1
    22bc:	03 c0       	rjmp	.+6      	; 0x22c4 <_Z10memoryGamev+0x208>
    22be:	82 e0       	ldi	r24, 0x02	; 2
    22c0:	80 93 49 01 	sts	0x0149, r24	; 0x800149 <state>
    22c4:	5f ef       	ldi	r21, 0xFF	; 255
    22c6:	8f e1       	ldi	r24, 0x1F	; 31
    22c8:	91 e0       	ldi	r25, 0x01	; 1
    22ca:	51 50       	subi	r21, 0x01	; 1
    22cc:	80 40       	sbci	r24, 0x00	; 0
    22ce:	90 40       	sbci	r25, 0x00	; 0
    22d0:	e1 f7       	brne	.-8      	; 0x22ca <_Z10memoryGamev+0x20e>
    22d2:	00 c0       	rjmp	.+0      	; 0x22d4 <_Z10memoryGamev+0x218>
    22d4:	00 00       	nop
    22d6:	f8 ce       	rjmp	.-528    	; 0x20c8 <_Z10memoryGamev+0xc>
			}
		}	 
		_delay_ms(50);  //debounce cekanjem
	}
}
    22d8:	cf 91       	pop	r28
    22da:	1f 91       	pop	r17
    22dc:	0f 91       	pop	r16
    22de:	ff 90       	pop	r15
    22e0:	ef 90       	pop	r14
    22e2:	cf 90       	pop	r12
    22e4:	08 95       	ret

000022e6 <_Z9printMenuv>:

// crtanje glavnog izbornika
void printMenu() {
    22e6:	cf 92       	push	r12
    22e8:	ef 92       	push	r14
    22ea:	ff 92       	push	r15
    22ec:	0f 93       	push	r16
    22ee:	1f 93       	push	r17
	display.clrScr();
    22f0:	8c e6       	ldi	r24, 0x6C	; 108
    22f2:	91 e0       	ldi	r25, 0x01	; 1
    22f4:	0e 94 e0 14 	call	0x29c0	; 0x29c0 <_ZN4UTFT6clrScrEv>
	
	display.print("Memory", CENTER, 10);
    22f8:	00 e0       	ldi	r16, 0x00	; 0
    22fa:	10 e0       	ldi	r17, 0x00	; 0
    22fc:	2a e0       	ldi	r18, 0x0A	; 10
    22fe:	30 e0       	ldi	r19, 0x00	; 0
    2300:	4e e0       	ldi	r20, 0x0E	; 14
    2302:	57 e2       	ldi	r21, 0x27	; 39
    2304:	62 e0       	ldi	r22, 0x02	; 2
    2306:	71 e0       	ldi	r23, 0x01	; 1
    2308:	8c e6       	ldi	r24, 0x6C	; 108
    230a:	91 e0       	ldi	r25, 0x01	; 1
    230c:	0e 94 89 18 	call	0x3112	; 0x3112 <_ZN4UTFT5printEPKciii>
	
	display.print("Best moves: ", 40, 40); 
    2310:	28 e2       	ldi	r18, 0x28	; 40
    2312:	30 e0       	ldi	r19, 0x00	; 0
    2314:	48 e2       	ldi	r20, 0x28	; 40
    2316:	50 e0       	ldi	r21, 0x00	; 0
    2318:	69 e0       	ldi	r22, 0x09	; 9
    231a:	71 e0       	ldi	r23, 0x01	; 1
    231c:	8c e6       	ldi	r24, 0x6C	; 108
    231e:	91 e0       	ldi	r25, 0x01	; 1
    2320:	0e 94 89 18 	call	0x3112	; 0x3112 <_ZN4UTFT5printEPKciii>
	if (bestMoves < 255) display.printNumI(bestMoves, 220, 40);   // prikazi samo ako postoji high score
    2324:	40 91 69 00 	lds	r20, 0x0069	; 0x800069 <bestMoves>
    2328:	4f 3f       	cpi	r20, 0xFF	; 255
    232a:	81 f0       	breq	.+32     	; 0x234c <_Z9printMenuv+0x66>
    232c:	50 e0       	ldi	r21, 0x00	; 0
    232e:	60 e0       	ldi	r22, 0x00	; 0
    2330:	70 e0       	ldi	r23, 0x00	; 0
    2332:	68 94       	set
    2334:	cc 24       	eor	r12, r12
    2336:	c5 f8       	bld	r12, 5
    2338:	e1 2c       	mov	r14, r1
    233a:	f1 2c       	mov	r15, r1
    233c:	08 e2       	ldi	r16, 0x28	; 40
    233e:	10 e0       	ldi	r17, 0x00	; 0
    2340:	2c ed       	ldi	r18, 0xDC	; 220
    2342:	30 e0       	ldi	r19, 0x00	; 0
    2344:	8c e6       	ldi	r24, 0x6C	; 108
    2346:	91 e0       	ldi	r25, 0x01	; 1
    2348:	0e 94 64 19 	call	0x32c8	; 0x32c8 <_ZN4UTFT9printNumIEliiic>
					
	display.print("Best time:", 30, 60);
    234c:	00 e0       	ldi	r16, 0x00	; 0
    234e:	10 e0       	ldi	r17, 0x00	; 0
    2350:	2c e3       	ldi	r18, 0x3C	; 60
    2352:	30 e0       	ldi	r19, 0x00	; 0
    2354:	4e e1       	ldi	r20, 0x1E	; 30
    2356:	50 e0       	ldi	r21, 0x00	; 0
    2358:	69 e9       	ldi	r22, 0x99	; 153
    235a:	70 e0       	ldi	r23, 0x00	; 0
    235c:	8c e6       	ldi	r24, 0x6C	; 108
    235e:	91 e0       	ldi	r25, 0x01	; 1
    2360:	0e 94 89 18 	call	0x3112	; 0x3112 <_ZN4UTFT5printEPKciii>
	if (bestTime[0] < 255 && bestTime[1] < 255 && bestTime[2] < 255) {
    2364:	40 91 66 00 	lds	r20, 0x0066	; 0x800066 <bestTime>
    2368:	4f 3f       	cpi	r20, 0xFF	; 255
    236a:	89 f1       	breq	.+98     	; 0x23ce <_Z9printMenuv+0xe8>
    236c:	80 91 67 00 	lds	r24, 0x0067	; 0x800067 <bestTime+0x1>
    2370:	8f 3f       	cpi	r24, 0xFF	; 255
    2372:	69 f1       	breq	.+90     	; 0x23ce <_Z9printMenuv+0xe8>
    2374:	80 91 68 00 	lds	r24, 0x0068	; 0x800068 <bestTime+0x2>
    2378:	8f 3f       	cpi	r24, 0xFF	; 255
    237a:	49 f1       	breq	.+82     	; 0x23ce <_Z9printMenuv+0xe8>
		display.printNumI(bestTime[0], 190, 60);
    237c:	50 e0       	ldi	r21, 0x00	; 0
    237e:	60 e0       	ldi	r22, 0x00	; 0
    2380:	70 e0       	ldi	r23, 0x00	; 0
    2382:	68 94       	set
    2384:	cc 24       	eor	r12, r12
    2386:	c5 f8       	bld	r12, 5
    2388:	e1 2c       	mov	r14, r1
    238a:	f1 2c       	mov	r15, r1
    238c:	0c e3       	ldi	r16, 0x3C	; 60
    238e:	10 e0       	ldi	r17, 0x00	; 0
    2390:	2e eb       	ldi	r18, 0xBE	; 190
    2392:	30 e0       	ldi	r19, 0x00	; 0
    2394:	8c e6       	ldi	r24, 0x6C	; 108
    2396:	91 e0       	ldi	r25, 0x01	; 1
    2398:	0e 94 64 19 	call	0x32c8	; 0x32c8 <_ZN4UTFT9printNumIEliiic>
		display.print(":", 220, 60);
    239c:	00 e0       	ldi	r16, 0x00	; 0
    239e:	10 e0       	ldi	r17, 0x00	; 0
    23a0:	2c e3       	ldi	r18, 0x3C	; 60
    23a2:	30 e0       	ldi	r19, 0x00	; 0
    23a4:	4c ed       	ldi	r20, 0xDC	; 220
    23a6:	50 e0       	ldi	r21, 0x00	; 0
    23a8:	6e e7       	ldi	r22, 0x7E	; 126
    23aa:	70 e0       	ldi	r23, 0x00	; 0
    23ac:	8c e6       	ldi	r24, 0x6C	; 108
    23ae:	91 e0       	ldi	r25, 0x01	; 1
    23b0:	0e 94 89 18 	call	0x3112	; 0x3112 <_ZN4UTFT5printEPKciii>
		display.printNumI(bestTime[1], 230, 60);
    23b4:	40 91 67 00 	lds	r20, 0x0067	; 0x800067 <bestTime+0x1>
    23b8:	50 e0       	ldi	r21, 0x00	; 0
    23ba:	60 e0       	ldi	r22, 0x00	; 0
    23bc:	70 e0       	ldi	r23, 0x00	; 0
    23be:	0c e3       	ldi	r16, 0x3C	; 60
    23c0:	10 e0       	ldi	r17, 0x00	; 0
    23c2:	26 ee       	ldi	r18, 0xE6	; 230
    23c4:	30 e0       	ldi	r19, 0x00	; 0
    23c6:	8c e6       	ldi	r24, 0x6C	; 108
    23c8:	91 e0       	ldi	r25, 0x01	; 1
    23ca:	0e 94 64 19 	call	0x32c8	; 0x32c8 <_ZN4UTFT9printNumIEliiic>
	}		
	
	display.print("Longest streak:", 10 , 80);
    23ce:	00 e0       	ldi	r16, 0x00	; 0
    23d0:	10 e0       	ldi	r17, 0x00	; 0
    23d2:	20 e5       	ldi	r18, 0x50	; 80
    23d4:	30 e0       	ldi	r19, 0x00	; 0
    23d6:	4a e0       	ldi	r20, 0x0A	; 10
    23d8:	50 e0       	ldi	r21, 0x00	; 0
    23da:	66 e1       	ldi	r22, 0x16	; 22
    23dc:	71 e0       	ldi	r23, 0x01	; 1
    23de:	8c e6       	ldi	r24, 0x6C	; 108
    23e0:	91 e0       	ldi	r25, 0x01	; 1
    23e2:	0e 94 89 18 	call	0x3112	; 0x3112 <_ZN4UTFT5printEPKciii>
	display.printNumI(roundStreak, 250, 80);
    23e6:	40 91 41 01 	lds	r20, 0x0141	; 0x800141 <roundStreak>
    23ea:	50 e0       	ldi	r21, 0x00	; 0
    23ec:	60 e0       	ldi	r22, 0x00	; 0
    23ee:	70 e0       	ldi	r23, 0x00	; 0
    23f0:	68 94       	set
    23f2:	cc 24       	eor	r12, r12
    23f4:	c5 f8       	bld	r12, 5
    23f6:	e1 2c       	mov	r14, r1
    23f8:	f1 2c       	mov	r15, r1
    23fa:	00 e5       	ldi	r16, 0x50	; 80
    23fc:	10 e0       	ldi	r17, 0x00	; 0
    23fe:	2a ef       	ldi	r18, 0xFA	; 250
    2400:	30 e0       	ldi	r19, 0x00	; 0
    2402:	8c e6       	ldi	r24, 0x6C	; 108
    2404:	91 e0       	ldi	r25, 0x01	; 1
    2406:	0e 94 64 19 	call	0x32c8	; 0x32c8 <_ZN4UTFT9printNumIEliiic>
	
	display.setFont(SmallFont);
    240a:	66 e7       	ldi	r22, 0x76	; 118
    240c:	7c e0       	ldi	r23, 0x0C	; 12
    240e:	8c e6       	ldi	r24, 0x6C	; 108
    2410:	91 e0       	ldi	r25, 0x01	; 1
    2412:	0e 94 6c 1a 	call	0x34d8	; 0x34d8 <_ZN4UTFT7setFontEPKh>
	
    display.drawRect(CASUAL_X1, BUTTONS_Y1, CASUAL_X2, BUTTONS_Y2);
    2416:	06 ee       	ldi	r16, 0xE6	; 230
    2418:	10 e0       	ldi	r17, 0x00	; 0
    241a:	24 e6       	ldi	r18, 0x64	; 100
    241c:	30 e0       	ldi	r19, 0x00	; 0
    241e:	46 e9       	ldi	r20, 0x96	; 150
    2420:	50 e0       	ldi	r21, 0x00	; 0
    2422:	6a e0       	ldi	r22, 0x0A	; 10
    2424:	70 e0       	ldi	r23, 0x00	; 0
    2426:	8c e6       	ldi	r24, 0x6C	; 108
    2428:	91 e0       	ldi	r25, 0x01	; 1
    242a:	0e 94 d8 15 	call	0x2bb0	; 0x2bb0 <_ZN4UTFT8drawRectEiiii>
	display.print("CASUAL", CASUAL_TEXT_X, BUTTONS_TEXT_Y);
    242e:	00 e0       	ldi	r16, 0x00	; 0
    2430:	10 e0       	ldi	r17, 0x00	; 0
    2432:	24 eb       	ldi	r18, 0xB4	; 180
    2434:	30 e0       	ldi	r19, 0x00	; 0
    2436:	43 e2       	ldi	r20, 0x23	; 35
    2438:	50 e0       	ldi	r21, 0x00	; 0
    243a:	66 e2       	ldi	r22, 0x26	; 38
    243c:	71 e0       	ldi	r23, 0x01	; 1
    243e:	8c e6       	ldi	r24, 0x6C	; 108
    2440:	91 e0       	ldi	r25, 0x01	; 1
    2442:	0e 94 89 18 	call	0x3112	; 0x3112 <_ZN4UTFT5printEPKciii>
	
	display.drawRect(CHALLENGE_X1, BUTTONS_Y1, CHALLENGE_X2, BUTTONS_Y2);
    2446:	06 ee       	ldi	r16, 0xE6	; 230
    2448:	10 e0       	ldi	r17, 0x00	; 0
    244a:	28 ec       	ldi	r18, 0xC8	; 200
    244c:	30 e0       	ldi	r19, 0x00	; 0
    244e:	46 e9       	ldi	r20, 0x96	; 150
    2450:	50 e0       	ldi	r21, 0x00	; 0
    2452:	6e e6       	ldi	r22, 0x6E	; 110
    2454:	70 e0       	ldi	r23, 0x00	; 0
    2456:	8c e6       	ldi	r24, 0x6C	; 108
    2458:	91 e0       	ldi	r25, 0x01	; 1
    245a:	0e 94 d8 15 	call	0x2bb0	; 0x2bb0 <_ZN4UTFT8drawRectEiiii>
	display.print("CHALLENGE", CHALLENGE_TEXT_X, BUTTONS_TEXT_Y);
    245e:	00 e0       	ldi	r16, 0x00	; 0
    2460:	10 e0       	ldi	r17, 0x00	; 0
    2462:	24 eb       	ldi	r18, 0xB4	; 180
    2464:	30 e0       	ldi	r19, 0x00	; 0
    2466:	48 e7       	ldi	r20, 0x78	; 120
    2468:	50 e0       	ldi	r21, 0x00	; 0
    246a:	6d e2       	ldi	r22, 0x2D	; 45
    246c:	71 e0       	ldi	r23, 0x01	; 1
    246e:	8c e6       	ldi	r24, 0x6C	; 108
    2470:	91 e0       	ldi	r25, 0x01	; 1
    2472:	0e 94 89 18 	call	0x3112	; 0x3112 <_ZN4UTFT5printEPKciii>
	
	display.drawRect(RESET_X1, BUTTONS_Y1, RESET_X2, BUTTONS_Y2);
    2476:	06 ee       	ldi	r16, 0xE6	; 230
    2478:	10 e0       	ldi	r17, 0x00	; 0
    247a:	26 e3       	ldi	r18, 0x36	; 54
    247c:	31 e0       	ldi	r19, 0x01	; 1
    247e:	46 e9       	ldi	r20, 0x96	; 150
    2480:	50 e0       	ldi	r21, 0x00	; 0
    2482:	6c ed       	ldi	r22, 0xDC	; 220
    2484:	70 e0       	ldi	r23, 0x00	; 0
    2486:	8c e6       	ldi	r24, 0x6C	; 108
    2488:	91 e0       	ldi	r25, 0x01	; 1
    248a:	0e 94 d8 15 	call	0x2bb0	; 0x2bb0 <_ZN4UTFT8drawRectEiiii>
	display.print("RESET", RESET_TEXT_X, BUTTONS_TEXT_Y);	
    248e:	00 e0       	ldi	r16, 0x00	; 0
    2490:	10 e0       	ldi	r17, 0x00	; 0
    2492:	24 eb       	ldi	r18, 0xB4	; 180
    2494:	30 e0       	ldi	r19, 0x00	; 0
    2496:	45 ef       	ldi	r20, 0xF5	; 245
    2498:	50 e0       	ldi	r21, 0x00	; 0
    249a:	67 e3       	ldi	r22, 0x37	; 55
    249c:	71 e0       	ldi	r23, 0x01	; 1
    249e:	8c e6       	ldi	r24, 0x6C	; 108
    24a0:	91 e0       	ldi	r25, 0x01	; 1
    24a2:	0e 94 89 18 	call	0x3112	; 0x3112 <_ZN4UTFT5printEPKciii>
	
	display.setFont(BigFont);
    24a6:	62 e9       	ldi	r22, 0x92	; 146
    24a8:	70 e0       	ldi	r23, 0x00	; 0
    24aa:	8c e6       	ldi	r24, 0x6C	; 108
    24ac:	91 e0       	ldi	r25, 0x01	; 1
    24ae:	0e 94 6c 1a 	call	0x34d8	; 0x34d8 <_ZN4UTFT7setFontEPKh>
}
    24b2:	1f 91       	pop	r17
    24b4:	0f 91       	pop	r16
    24b6:	ff 90       	pop	r15
    24b8:	ef 90       	pop	r14
    24ba:	cf 90       	pop	r12
    24bc:	08 95       	ret

000024be <_Z12menuGetInputv>:


uint8_t menuGetInput() {	
    24be:	cf 93       	push	r28
    24c0:	df 93       	push	r29
	while(!Touched()); 
    24c2:	0e 94 a9 09 	call	0x1352	; 0x1352 <_Z7Touchedv>
    24c6:	88 23       	and	r24, r24
    24c8:	e1 f3       	breq	.-8      	; 0x24c2 <_Z12menuGetInputv+0x4>
	uint16_t x = getX();
    24ca:	0e 94 af 09 	call	0x135e	; 0x135e <_Z4getXv>
    24ce:	ec 01       	movw	r28, r24
	uint16_t y = getY();      
    24d0:	0e 94 e5 09 	call	0x13ca	; 0x13ca <_Z4getYv>
	
	if ((x > CASUAL_X1) && (x < CASUAL_X2) && (y > BUTTONS_Y1) && (y < BUTTONS_Y2)) return 1;
    24d4:	9e 01       	movw	r18, r28
    24d6:	2b 50       	subi	r18, 0x0B	; 11
    24d8:	31 09       	sbc	r19, r1
    24da:	29 35       	cpi	r18, 0x59	; 89
    24dc:	31 05       	cpc	r19, r1
    24de:	30 f4       	brcc	.+12     	; 0x24ec <_Z12menuGetInputv+0x2e>
    24e0:	87 39       	cpi	r24, 0x97	; 151
    24e2:	91 05       	cpc	r25, r1
    24e4:	18 f0       	brcs	.+6      	; 0x24ec <_Z12menuGetInputv+0x2e>
    24e6:	86 3e       	cpi	r24, 0xE6	; 230
    24e8:	91 05       	cpc	r25, r1
    24ea:	c8 f0       	brcs	.+50     	; 0x251e <_Z12menuGetInputv+0x60>
	else if ((x > CHALLENGE_X1) && (x < CHALLENGE_X2) && (y > BUTTONS_Y1) && (y < BUTTONS_Y2)) return 2;
    24ec:	9e 01       	movw	r18, r28
    24ee:	2f 56       	subi	r18, 0x6F	; 111
    24f0:	31 09       	sbc	r19, r1
    24f2:	29 35       	cpi	r18, 0x59	; 89
    24f4:	31 05       	cpc	r19, r1
    24f6:	30 f4       	brcc	.+12     	; 0x2504 <_Z12menuGetInputv+0x46>
    24f8:	87 39       	cpi	r24, 0x97	; 151
    24fa:	91 05       	cpc	r25, r1
    24fc:	18 f0       	brcs	.+6      	; 0x2504 <_Z12menuGetInputv+0x46>
    24fe:	86 3e       	cpi	r24, 0xE6	; 230
    2500:	91 05       	cpc	r25, r1
    2502:	78 f0       	brcs	.+30     	; 0x2522 <_Z12menuGetInputv+0x64>
	else if ((x > RESET_X1) && (x < RESET_X2) && (y > BUTTONS_Y1) && (y < BUTTONS_Y2)) return 3;
    2504:	cd 5d       	subi	r28, 0xDD	; 221
    2506:	d1 09       	sbc	r29, r1
    2508:	c9 35       	cpi	r28, 0x59	; 89
    250a:	d1 05       	cpc	r29, r1
    250c:	60 f4       	brcc	.+24     	; 0x2526 <_Z12menuGetInputv+0x68>
    250e:	87 39       	cpi	r24, 0x97	; 151
    2510:	91 05       	cpc	r25, r1
    2512:	58 f0       	brcs	.+22     	; 0x252a <_Z12menuGetInputv+0x6c>
    2514:	86 3e       	cpi	r24, 0xE6	; 230
    2516:	91 05       	cpc	r25, r1
    2518:	50 f0       	brcs	.+20     	; 0x252e <_Z12menuGetInputv+0x70>
	else return 0;
    251a:	80 e0       	ldi	r24, 0x00	; 0
    251c:	09 c0       	rjmp	.+18     	; 0x2530 <_Z12menuGetInputv+0x72>
uint8_t menuGetInput() {	
	while(!Touched()); 
	uint16_t x = getX();
	uint16_t y = getY();      
	
	if ((x > CASUAL_X1) && (x < CASUAL_X2) && (y > BUTTONS_Y1) && (y < BUTTONS_Y2)) return 1;
    251e:	81 e0       	ldi	r24, 0x01	; 1
    2520:	07 c0       	rjmp	.+14     	; 0x2530 <_Z12menuGetInputv+0x72>
	else if ((x > CHALLENGE_X1) && (x < CHALLENGE_X2) && (y > BUTTONS_Y1) && (y < BUTTONS_Y2)) return 2;
    2522:	82 e0       	ldi	r24, 0x02	; 2
    2524:	05 c0       	rjmp	.+10     	; 0x2530 <_Z12menuGetInputv+0x72>
	else if ((x > RESET_X1) && (x < RESET_X2) && (y > BUTTONS_Y1) && (y < BUTTONS_Y2)) return 3;
	else return 0;
    2526:	80 e0       	ldi	r24, 0x00	; 0
    2528:	03 c0       	rjmp	.+6      	; 0x2530 <_Z12menuGetInputv+0x72>
    252a:	80 e0       	ldi	r24, 0x00	; 0
    252c:	01 c0       	rjmp	.+2      	; 0x2530 <_Z12menuGetInputv+0x72>
	uint16_t x = getX();
	uint16_t y = getY();      
	
	if ((x > CASUAL_X1) && (x < CASUAL_X2) && (y > BUTTONS_Y1) && (y < BUTTONS_Y2)) return 1;
	else if ((x > CHALLENGE_X1) && (x < CHALLENGE_X2) && (y > BUTTONS_Y1) && (y < BUTTONS_Y2)) return 2;
	else if ((x > RESET_X1) && (x < RESET_X2) && (y > BUTTONS_Y1) && (y < BUTTONS_Y2)) return 3;
    252e:	83 e0       	ldi	r24, 0x03	; 3
	else return 0;
} 
    2530:	df 91       	pop	r29
    2532:	cf 91       	pop	r28
    2534:	08 95       	ret

00002536 <main>:


int main(void) {
	
	//T-IRQ spojen na PINB3 kao ulazni te je nizak samo pri dodiru, inace visok
	DDRB &= ~_BV(T_IRQ);
    2536:	87 b3       	in	r24, 0x17	; 23
    2538:	87 7f       	andi	r24, 0xF7	; 247
    253a:	87 bb       	out	0x17, r24	; 23
	
	// timer za brojanje vremena
	TCCR0 = _BV(WGM01) | _BV(CS02) | _BV(CS00);
    253c:	8d e0       	ldi	r24, 0x0D	; 13
    253e:	83 bf       	out	0x33, r24	; 51
	OCR0 = 72;
    2540:	88 e4       	ldi	r24, 0x48	; 72
    2542:	8c bf       	out	0x3c, r24	; 60
	TIMSK = _BV(OCIE0);
    2544:	82 e0       	ldi	r24, 0x02	; 2
    2546:	89 bf       	out	0x39, r24	; 57
	sei();
    2548:	78 94       	sei

	SPI_Init();
    254a:	0e 94 ff 12 	call	0x25fe	; 0x25fe <SPI_Init>
	SS_Enable;
    254e:	88 b3       	in	r24, 0x18	; 24
    2550:	8f 7e       	andi	r24, 0xEF	; 239
    2552:	88 bb       	out	0x18, r24	; 24
	
	display.InitLCD(LANDSCAPE);
    2554:	61 e0       	ldi	r22, 0x01	; 1
    2556:	8c e6       	ldi	r24, 0x6C	; 108
    2558:	91 e0       	ldi	r25, 0x01	; 1
    255a:	0e 94 5e 15 	call	0x2abc	; 0x2abc <_ZN4UTFT7InitLCDEh>
	display.clrScr();
    255e:	8c e6       	ldi	r24, 0x6C	; 108
    2560:	91 e0       	ldi	r25, 0x01	; 1
    2562:	0e 94 e0 14 	call	0x29c0	; 0x29c0 <_ZN4UTFT6clrScrEv>
	display.setFont(BigFont);
    2566:	62 e9       	ldi	r22, 0x92	; 146
    2568:	70 e0       	ldi	r23, 0x00	; 0
    256a:	8c e6       	ldi	r24, 0x6C	; 108
    256c:	91 e0       	ldi	r25, 0x01	; 1
    256e:	0e 94 6c 1a 	call	0x34d8	; 0x34d8 <_ZN4UTFT7setFontEPKh>
	
	while (1) {		
		if (menu == 0) {
    2572:	80 91 40 01 	lds	r24, 0x0140	; 0x800140 <menu>
    2576:	81 11       	cpse	r24, r1
    2578:	36 c0       	rjmp	.+108    	; 0x25e6 <main+0xb0>
			roundCounter = 0;                                     // resetira broj rundi ako smo na main menu
    257a:	10 92 42 01 	sts	0x0142, r1	; 0x800142 <roundCounter>
			challengeMoves = CHALLENGE_MOVES;                     // resetira broj dozvoljenih poteza u izazovnom nacinu
    257e:	8d e2       	ldi	r24, 0x2D	; 45
    2580:	80 93 65 00 	sts	0x0065, r24	; 0x800065 <challengeMoves>
			challengeTime = CHALLENGE_TIME;                       // resetira dozvoljeno vrijeme u izazovnom nacinu
    2584:	88 e7       	ldi	r24, 0x78	; 120
    2586:	80 93 64 00 	sts	0x0064, r24	; 0x800064 <challengeTime>
			printMenu();
    258a:	0e 94 73 11 	call	0x22e6	; 0x22e6 <_Z9printMenuv>
    258e:	2f ef       	ldi	r18, 0xFF	; 255
    2590:	8f e3       	ldi	r24, 0x3F	; 63
    2592:	92 e0       	ldi	r25, 0x02	; 2
    2594:	21 50       	subi	r18, 0x01	; 1
    2596:	80 40       	sbci	r24, 0x00	; 0
    2598:	90 40       	sbci	r25, 0x00	; 0
    259a:	e1 f7       	brne	.-8      	; 0x2594 <main+0x5e>
    259c:	00 c0       	rjmp	.+0      	; 0x259e <main+0x68>
    259e:	00 00       	nop
			_delay_ms(100);
			uint8_t input;                            
			do {
				input = menuGetInput();
    25a0:	0e 94 5f 12 	call	0x24be	; 0x24be <_Z12menuGetInputv>
				* 1 - "opusteni" nacin igre
				* 2 - "izazovni" nacin igre - ograniceno vrijeme i broj poteza
				* 3 - obrisi rekorde i ponovno ispisi glavni izbornik da se obrisu ispisani rekordi
				* 0 - ako ne dodirnemo niti jedan gumb
				*/
				if (input == 1) {
    25a4:	81 30       	cpi	r24, 0x01	; 1
    25a6:	19 f4       	brne	.+6      	; 0x25ae <main+0x78>
					challengeMode = 0;
    25a8:	10 92 3f 01 	sts	0x013F, r1	; 0x80013f <challengeMode>
    25ac:	16 c0       	rjmp	.+44     	; 0x25da <main+0xa4>
				} else if (input == 2) {
    25ae:	82 30       	cpi	r24, 0x02	; 2
    25b0:	21 f4       	brne	.+8      	; 0x25ba <main+0x84>
					challengeMode = 1;
    25b2:	91 e0       	ldi	r25, 0x01	; 1
    25b4:	90 93 3f 01 	sts	0x013F, r25	; 0x80013f <challengeMode>
    25b8:	10 c0       	rjmp	.+32     	; 0x25da <main+0xa4>
				} else if (input == 3) {
    25ba:	83 30       	cpi	r24, 0x03	; 3
    25bc:	71 f4       	brne	.+28     	; 0x25da <main+0xa4>
					resetHighscores();
    25be:	0e 94 5d 0e 	call	0x1cba	; 0x1cba <_Z15resetHighscoresv>
    25c2:	2f ef       	ldi	r18, 0xFF	; 255
    25c4:	8f e3       	ldi	r24, 0x3F	; 63
    25c6:	92 e0       	ldi	r25, 0x02	; 2
    25c8:	21 50       	subi	r18, 0x01	; 1
    25ca:	80 40       	sbci	r24, 0x00	; 0
    25cc:	90 40       	sbci	r25, 0x00	; 0
    25ce:	e1 f7       	brne	.-8      	; 0x25c8 <main+0x92>
    25d0:	00 c0       	rjmp	.+0      	; 0x25d2 <main+0x9c>
    25d2:	00 00       	nop
					_delay_ms(100); //debounce cekanjem da nema efekta treperenja
					input = 0;
					printMenu();
    25d4:	0e 94 73 11 	call	0x22e6	; 0x22e6 <_Z9printMenuv>
				} else if (input == 2) {
					challengeMode = 1;
				} else if (input == 3) {
					resetHighscores();
					_delay_ms(100); //debounce cekanjem da nema efekta treperenja
					input = 0;
    25d8:	80 e0       	ldi	r24, 0x00	; 0
					printMenu();
				}
			} while (input == 0);  // uvijek naprije otvori glavni izbornik i cekaj dok ne pokrenemo igru
    25da:	88 23       	and	r24, r24
    25dc:	09 f3       	breq	.-62     	; 0x25a0 <main+0x6a>
			menu = 1;
    25de:	81 e0       	ldi	r24, 0x01	; 1
    25e0:	80 93 40 01 	sts	0x0140, r24	; 0x800140 <menu>
    25e4:	c6 cf       	rjmp	.-116    	; 0x2572 <main+0x3c>
		} else if (menu == 1) {
    25e6:	88 23       	and	r24, r24
    25e8:	21 f2       	breq	.-120    	; 0x2572 <main+0x3c>
			memoryGame();  //pokreni igru
    25ea:	0e 94 5e 10 	call	0x20bc	; 0x20bc <_Z10memoryGamev>
    25ee:	c1 cf       	rjmp	.-126    	; 0x2572 <main+0x3c>

000025f0 <_GLOBAL__sub_I_display>:
		}
	}
}
    25f0:	6f ef       	ldi	r22, 0xFF	; 255
    25f2:	7f ef       	ldi	r23, 0xFF	; 255
    25f4:	81 e0       	ldi	r24, 0x01	; 1
    25f6:	90 e0       	ldi	r25, 0x00	; 0
    25f8:	0e 94 9f 09 	call	0x133e	; 0x133e <_Z41__static_initialization_and_destruction_0ii>
    25fc:	08 95       	ret

000025fe <SPI_Init>:
#include "SPI_Master_H_file.h"				/* Include SPI Master header file */


void SPI_Init()								/* SPI Initialize function */
{
	DDRB |= (1<<MOSI)|(1<<SCK)|(1<<SS);		/* Make MOSI, SCK, 0th pin direction as output pins */
    25fe:	87 b3       	in	r24, 0x17	; 23
    2600:	80 6b       	ori	r24, 0xB0	; 176
    2602:	87 bb       	out	0x17, r24	; 23
	DDRB &= ~(1<<MISO);						/* Make MISO pin as input pin */
    2604:	87 b3       	in	r24, 0x17	; 23
    2606:	8f 7b       	andi	r24, 0xBF	; 191
    2608:	87 bb       	out	0x17, r24	; 23
	PORTB |= (1<<SS);						/* Disable slave initially by making high on SS pin */
    260a:	88 b3       	in	r24, 0x18	; 24
    260c:	80 61       	ori	r24, 0x10	; 16
    260e:	88 bb       	out	0x18, r24	; 24
	SPCR = (1<<SPE)|(1<<MSTR)|(1<<SPR0);	/* Enable SPI, Enable in master mode, with Fosc/16 SCK frequency */
    2610:	81 e5       	ldi	r24, 0x51	; 81
    2612:	8d b9       	out	0x0d, r24	; 13
	SPSR &= ~(1<<SPI2X);					/* Disable speed doubler */
    2614:	8e b1       	in	r24, 0x0e	; 14
    2616:	8e 7f       	andi	r24, 0xFE	; 254
    2618:	8e b9       	out	0x0e, r24	; 14
    261a:	08 95       	ret

0000261c <SPI_Write>:
}

void SPI_Write(char data)					/* SPI write data function */
{
	char flush_buffer;
	SPDR = data;							/* Write data to SPI data register */
    261c:	8f b9       	out	0x0f, r24	; 15
	while(!(SPSR & (1<<SPIF)));				/* Wait till transmission complete */
    261e:	77 9b       	sbis	0x0e, 7	; 14
    2620:	fe cf       	rjmp	.-4      	; 0x261e <SPI_Write+0x2>
	flush_buffer = SPDR;					/* Flush received data */
    2622:	8f b1       	in	r24, 0x0f	; 15
    2624:	08 95       	ret

00002626 <SPI_Read>:
/* Note: SPIF flag is cleared by first reading SPSR (with SPIF set) and then accessing SPDR hence flush buffer used here to access SPDR after SPSR read */
}

char SPI_Read()								/* SPI read data function */
{
	SPDR = 0xFF;
    2626:	8f ef       	ldi	r24, 0xFF	; 255
    2628:	8f b9       	out	0x0f, r24	; 15
	while(!(SPSR & (1<<SPIF)));				/* Wait till reception complete */
    262a:	77 9b       	sbis	0x0e, 7	; 14
    262c:	fe cf       	rjmp	.-4      	; 0x262a <SPI_Read+0x4>
	return(SPDR);							/* return received data */
    262e:	8f b1       	in	r24, 0x0f	; 15
}
    2630:	08 95       	ret

00002632 <SSD1289_init>:



void SSD1289_init()
{	
	DATA_PORT_LOW_DDR = 0xff;
    2632:	8f ef       	ldi	r24, 0xFF	; 255
    2634:	81 bb       	out	0x11, r24	; 17
	DATA_PORT_HIGH_DDR = 0xff;
    2636:	8a bb       	out	0x1a, r24	; 26
			
	RS_PORT_DDR |= _BV( RS_PIN);
    2638:	84 b3       	in	r24, 0x14	; 20
    263a:	80 68       	ori	r24, 0x80	; 128
    263c:	84 bb       	out	0x14, r24	; 20
				
	WR_PORT_DDR |= _BV(WR_PIN);
    263e:	84 b3       	in	r24, 0x14	; 20
    2640:	80 64       	ori	r24, 0x40	; 64
    2642:	84 bb       	out	0x14, r24	; 20

	CS_PORT_DDR |= _BV(CS_PIN);
    2644:	84 b3       	in	r24, 0x14	; 20
    2646:	81 60       	ori	r24, 0x01	; 1
    2648:	84 bb       	out	0x14, r24	; 20
		
	RD_PORT_DDR |= _BV(RD_PIN);
    264a:	87 b3       	in	r24, 0x17	; 23
    264c:	81 60       	ori	r24, 0x01	; 1
    264e:	87 bb       	out	0x17, r24	; 23
	RD_PORT |= _BV(RD_PIN);
    2650:	88 b3       	in	r24, 0x18	; 24
    2652:	81 60       	ori	r24, 0x01	; 1
    2654:	88 bb       	out	0x18, r24	; 24
		
	RESET_PORT_DDR |= _BV(RESET_PIN);
    2656:	84 b3       	in	r24, 0x14	; 20
    2658:	82 60       	ori	r24, 0x02	; 2
    265a:	84 bb       	out	0x14, r24	; 20
		
	BACK_LIGHT_PORT |= _BV(BACK_LIGHT_PIN);
    265c:	88 b3       	in	r24, 0x18	; 24
    265e:	82 60       	ori	r24, 0x02	; 2
    2660:	88 bb       	out	0x18, r24	; 24
	
	BACK_LIGHT_DDR |= _BV(BACK_LIGHT_PIN);			
    2662:	87 b3       	in	r24, 0x17	; 23
    2664:	82 60       	ori	r24, 0x02	; 2
    2666:	87 bb       	out	0x17, r24	; 23
	
	sbi(RESET_PORT, RESET_PIN);
    2668:	85 b3       	in	r24, 0x15	; 21
    266a:	82 60       	ori	r24, 0x02	; 2
    266c:	85 bb       	out	0x15, r24	; 21
    266e:	8f ef       	ldi	r24, 0xFF	; 255
    2670:	93 e2       	ldi	r25, 0x23	; 35
    2672:	01 97       	sbiw	r24, 0x01	; 1
    2674:	f1 f7       	brne	.-4      	; 0x2672 <SSD1289_init+0x40>
    2676:	00 c0       	rjmp	.+0      	; 0x2678 <SSD1289_init+0x46>
    2678:	00 00       	nop
	_delay_ms(5);
	cbi(RESET_PORT, RESET_PIN);
    267a:	85 b3       	in	r24, 0x15	; 21
    267c:	8d 7f       	andi	r24, 0xFD	; 253
    267e:	85 bb       	out	0x15, r24	; 21
    2680:	8f ef       	ldi	r24, 0xFF	; 255
    2682:	9b e6       	ldi	r25, 0x6B	; 107
    2684:	01 97       	sbiw	r24, 0x01	; 1
    2686:	f1 f7       	brne	.-4      	; 0x2684 <SSD1289_init+0x52>
    2688:	00 c0       	rjmp	.+0      	; 0x268a <SSD1289_init+0x58>
    268a:	00 00       	nop
	_delay_ms(15);
	sbi(RESET_PORT, RESET_PIN);
    268c:	85 b3       	in	r24, 0x15	; 21
    268e:	82 60       	ori	r24, 0x02	; 2
    2690:	85 bb       	out	0x15, r24	; 21
    2692:	8f ef       	ldi	r24, 0xFF	; 255
    2694:	9b e6       	ldi	r25, 0x6B	; 107
    2696:	01 97       	sbiw	r24, 0x01	; 1
    2698:	f1 f7       	brne	.-4      	; 0x2696 <SSD1289_init+0x64>
    269a:	00 c0       	rjmp	.+0      	; 0x269c <SSD1289_init+0x6a>
    269c:	00 00       	nop
	_delay_ms(15);

	cbi(CS_PORT, CS_PIN);
    269e:	85 b3       	in	r24, 0x15	; 21
    26a0:	8e 7f       	andi	r24, 0xFE	; 254
    26a2:	85 bb       	out	0x15, r24	; 21

	LCD_Write_COM_DATA(0x00,0x0001);
    26a4:	61 e0       	ldi	r22, 0x01	; 1
    26a6:	70 e0       	ldi	r23, 0x00	; 0
    26a8:	80 e0       	ldi	r24, 0x00	; 0
    26aa:	0e 94 8e 09 	call	0x131c	; 0x131c <LCD_Write_COM_DATA>
	LCD_Write_COM_DATA(0x03,0xA8A4);
    26ae:	64 ea       	ldi	r22, 0xA4	; 164
    26b0:	78 ea       	ldi	r23, 0xA8	; 168
    26b2:	83 e0       	ldi	r24, 0x03	; 3
    26b4:	0e 94 8e 09 	call	0x131c	; 0x131c <LCD_Write_COM_DATA>
	LCD_Write_COM_DATA(0x0C,0x0000);
    26b8:	60 e0       	ldi	r22, 0x00	; 0
    26ba:	70 e0       	ldi	r23, 0x00	; 0
    26bc:	8c e0       	ldi	r24, 0x0C	; 12
    26be:	0e 94 8e 09 	call	0x131c	; 0x131c <LCD_Write_COM_DATA>
	LCD_Write_COM_DATA(0x0D,0x080C);
    26c2:	6c e0       	ldi	r22, 0x0C	; 12
    26c4:	78 e0       	ldi	r23, 0x08	; 8
    26c6:	8d e0       	ldi	r24, 0x0D	; 13
    26c8:	0e 94 8e 09 	call	0x131c	; 0x131c <LCD_Write_COM_DATA>
	LCD_Write_COM_DATA(0x0E,0x2B00);
    26cc:	60 e0       	ldi	r22, 0x00	; 0
    26ce:	7b e2       	ldi	r23, 0x2B	; 43
    26d0:	8e e0       	ldi	r24, 0x0E	; 14
    26d2:	0e 94 8e 09 	call	0x131c	; 0x131c <LCD_Write_COM_DATA>
	LCD_Write_COM_DATA(0x1E,0x00B7);
    26d6:	67 eb       	ldi	r22, 0xB7	; 183
    26d8:	70 e0       	ldi	r23, 0x00	; 0
    26da:	8e e1       	ldi	r24, 0x1E	; 30
    26dc:	0e 94 8e 09 	call	0x131c	; 0x131c <LCD_Write_COM_DATA>
	LCD_Write_COM_DATA(0x01,0x2B3F);
    26e0:	6f e3       	ldi	r22, 0x3F	; 63
    26e2:	7b e2       	ldi	r23, 0x2B	; 43
    26e4:	81 e0       	ldi	r24, 0x01	; 1
    26e6:	0e 94 8e 09 	call	0x131c	; 0x131c <LCD_Write_COM_DATA>
	LCD_Write_COM_DATA(0x02,0x0600);
    26ea:	60 e0       	ldi	r22, 0x00	; 0
    26ec:	76 e0       	ldi	r23, 0x06	; 6
    26ee:	82 e0       	ldi	r24, 0x02	; 2
    26f0:	0e 94 8e 09 	call	0x131c	; 0x131c <LCD_Write_COM_DATA>
	LCD_Write_COM_DATA(0x10,0x0000);
    26f4:	60 e0       	ldi	r22, 0x00	; 0
    26f6:	70 e0       	ldi	r23, 0x00	; 0
    26f8:	80 e1       	ldi	r24, 0x10	; 16
    26fa:	0e 94 8e 09 	call	0x131c	; 0x131c <LCD_Write_COM_DATA>
	LCD_Write_COM_DATA(0x11,0x6070);
    26fe:	60 e7       	ldi	r22, 0x70	; 112
    2700:	70 e6       	ldi	r23, 0x60	; 96
    2702:	81 e1       	ldi	r24, 0x11	; 17
    2704:	0e 94 8e 09 	call	0x131c	; 0x131c <LCD_Write_COM_DATA>
	LCD_Write_COM_DATA(0x05,0x0000);
    2708:	60 e0       	ldi	r22, 0x00	; 0
    270a:	70 e0       	ldi	r23, 0x00	; 0
    270c:	85 e0       	ldi	r24, 0x05	; 5
    270e:	0e 94 8e 09 	call	0x131c	; 0x131c <LCD_Write_COM_DATA>
	LCD_Write_COM_DATA(0x06,0x0000);
    2712:	60 e0       	ldi	r22, 0x00	; 0
    2714:	70 e0       	ldi	r23, 0x00	; 0
    2716:	86 e0       	ldi	r24, 0x06	; 6
    2718:	0e 94 8e 09 	call	0x131c	; 0x131c <LCD_Write_COM_DATA>
	LCD_Write_COM_DATA(0x16,0xEF1C);
    271c:	6c e1       	ldi	r22, 0x1C	; 28
    271e:	7f ee       	ldi	r23, 0xEF	; 239
    2720:	86 e1       	ldi	r24, 0x16	; 22
    2722:	0e 94 8e 09 	call	0x131c	; 0x131c <LCD_Write_COM_DATA>
	LCD_Write_COM_DATA(0x17,0x0003);
    2726:	63 e0       	ldi	r22, 0x03	; 3
    2728:	70 e0       	ldi	r23, 0x00	; 0
    272a:	87 e1       	ldi	r24, 0x17	; 23
    272c:	0e 94 8e 09 	call	0x131c	; 0x131c <LCD_Write_COM_DATA>
	LCD_Write_COM_DATA(0x07,0x0233);
    2730:	63 e3       	ldi	r22, 0x33	; 51
    2732:	72 e0       	ldi	r23, 0x02	; 2
    2734:	87 e0       	ldi	r24, 0x07	; 7
    2736:	0e 94 8e 09 	call	0x131c	; 0x131c <LCD_Write_COM_DATA>
	LCD_Write_COM_DATA(0x0B,0x0000);
    273a:	60 e0       	ldi	r22, 0x00	; 0
    273c:	70 e0       	ldi	r23, 0x00	; 0
    273e:	8b e0       	ldi	r24, 0x0B	; 11
    2740:	0e 94 8e 09 	call	0x131c	; 0x131c <LCD_Write_COM_DATA>
	LCD_Write_COM_DATA(0x0F,0x0000);
    2744:	60 e0       	ldi	r22, 0x00	; 0
    2746:	70 e0       	ldi	r23, 0x00	; 0
    2748:	8f e0       	ldi	r24, 0x0F	; 15
    274a:	0e 94 8e 09 	call	0x131c	; 0x131c <LCD_Write_COM_DATA>
	LCD_Write_COM_DATA(0x41,0x0000);
    274e:	60 e0       	ldi	r22, 0x00	; 0
    2750:	70 e0       	ldi	r23, 0x00	; 0
    2752:	81 e4       	ldi	r24, 0x41	; 65
    2754:	0e 94 8e 09 	call	0x131c	; 0x131c <LCD_Write_COM_DATA>
	LCD_Write_COM_DATA(0x42,0x0000);
    2758:	60 e0       	ldi	r22, 0x00	; 0
    275a:	70 e0       	ldi	r23, 0x00	; 0
    275c:	82 e4       	ldi	r24, 0x42	; 66
    275e:	0e 94 8e 09 	call	0x131c	; 0x131c <LCD_Write_COM_DATA>
	LCD_Write_COM_DATA(0x48,0x0000);
    2762:	60 e0       	ldi	r22, 0x00	; 0
    2764:	70 e0       	ldi	r23, 0x00	; 0
    2766:	88 e4       	ldi	r24, 0x48	; 72
    2768:	0e 94 8e 09 	call	0x131c	; 0x131c <LCD_Write_COM_DATA>
	LCD_Write_COM_DATA(0x49,0x013F);
    276c:	6f e3       	ldi	r22, 0x3F	; 63
    276e:	71 e0       	ldi	r23, 0x01	; 1
    2770:	89 e4       	ldi	r24, 0x49	; 73
    2772:	0e 94 8e 09 	call	0x131c	; 0x131c <LCD_Write_COM_DATA>
	LCD_Write_COM_DATA(0x4A,0x0000);
    2776:	60 e0       	ldi	r22, 0x00	; 0
    2778:	70 e0       	ldi	r23, 0x00	; 0
    277a:	8a e4       	ldi	r24, 0x4A	; 74
    277c:	0e 94 8e 09 	call	0x131c	; 0x131c <LCD_Write_COM_DATA>
	LCD_Write_COM_DATA(0x4B,0x0000);
    2780:	60 e0       	ldi	r22, 0x00	; 0
    2782:	70 e0       	ldi	r23, 0x00	; 0
    2784:	8b e4       	ldi	r24, 0x4B	; 75
    2786:	0e 94 8e 09 	call	0x131c	; 0x131c <LCD_Write_COM_DATA>
	LCD_Write_COM_DATA(0x44,0xEF00);
    278a:	60 e0       	ldi	r22, 0x00	; 0
    278c:	7f ee       	ldi	r23, 0xEF	; 239
    278e:	84 e4       	ldi	r24, 0x44	; 68
    2790:	0e 94 8e 09 	call	0x131c	; 0x131c <LCD_Write_COM_DATA>
	LCD_Write_COM_DATA(0x45,0x0000);
    2794:	60 e0       	ldi	r22, 0x00	; 0
    2796:	70 e0       	ldi	r23, 0x00	; 0
    2798:	85 e4       	ldi	r24, 0x45	; 69
    279a:	0e 94 8e 09 	call	0x131c	; 0x131c <LCD_Write_COM_DATA>
	LCD_Write_COM_DATA(0x46,0x013F);
    279e:	6f e3       	ldi	r22, 0x3F	; 63
    27a0:	71 e0       	ldi	r23, 0x01	; 1
    27a2:	86 e4       	ldi	r24, 0x46	; 70
    27a4:	0e 94 8e 09 	call	0x131c	; 0x131c <LCD_Write_COM_DATA>
	LCD_Write_COM_DATA(0x30,0x0707);
    27a8:	67 e0       	ldi	r22, 0x07	; 7
    27aa:	77 e0       	ldi	r23, 0x07	; 7
    27ac:	80 e3       	ldi	r24, 0x30	; 48
    27ae:	0e 94 8e 09 	call	0x131c	; 0x131c <LCD_Write_COM_DATA>
	LCD_Write_COM_DATA(0x31,0x0204);
    27b2:	64 e0       	ldi	r22, 0x04	; 4
    27b4:	72 e0       	ldi	r23, 0x02	; 2
    27b6:	81 e3       	ldi	r24, 0x31	; 49
    27b8:	0e 94 8e 09 	call	0x131c	; 0x131c <LCD_Write_COM_DATA>
	LCD_Write_COM_DATA(0x32,0x0204);
    27bc:	64 e0       	ldi	r22, 0x04	; 4
    27be:	72 e0       	ldi	r23, 0x02	; 2
    27c0:	82 e3       	ldi	r24, 0x32	; 50
    27c2:	0e 94 8e 09 	call	0x131c	; 0x131c <LCD_Write_COM_DATA>
	LCD_Write_COM_DATA(0x33,0x0502);
    27c6:	62 e0       	ldi	r22, 0x02	; 2
    27c8:	75 e0       	ldi	r23, 0x05	; 5
    27ca:	83 e3       	ldi	r24, 0x33	; 51
    27cc:	0e 94 8e 09 	call	0x131c	; 0x131c <LCD_Write_COM_DATA>
	LCD_Write_COM_DATA(0x34,0x0507);
    27d0:	67 e0       	ldi	r22, 0x07	; 7
    27d2:	75 e0       	ldi	r23, 0x05	; 5
    27d4:	84 e3       	ldi	r24, 0x34	; 52
    27d6:	0e 94 8e 09 	call	0x131c	; 0x131c <LCD_Write_COM_DATA>
	LCD_Write_COM_DATA(0x35,0x0204);
    27da:	64 e0       	ldi	r22, 0x04	; 4
    27dc:	72 e0       	ldi	r23, 0x02	; 2
    27de:	85 e3       	ldi	r24, 0x35	; 53
    27e0:	0e 94 8e 09 	call	0x131c	; 0x131c <LCD_Write_COM_DATA>
	LCD_Write_COM_DATA(0x36,0x0204);
    27e4:	64 e0       	ldi	r22, 0x04	; 4
    27e6:	72 e0       	ldi	r23, 0x02	; 2
    27e8:	86 e3       	ldi	r24, 0x36	; 54
    27ea:	0e 94 8e 09 	call	0x131c	; 0x131c <LCD_Write_COM_DATA>
	LCD_Write_COM_DATA(0x37,0x0502);
    27ee:	62 e0       	ldi	r22, 0x02	; 2
    27f0:	75 e0       	ldi	r23, 0x05	; 5
    27f2:	87 e3       	ldi	r24, 0x37	; 55
    27f4:	0e 94 8e 09 	call	0x131c	; 0x131c <LCD_Write_COM_DATA>
	LCD_Write_COM_DATA(0x3A,0x0302);
    27f8:	62 e0       	ldi	r22, 0x02	; 2
    27fa:	73 e0       	ldi	r23, 0x03	; 3
    27fc:	8a e3       	ldi	r24, 0x3A	; 58
    27fe:	0e 94 8e 09 	call	0x131c	; 0x131c <LCD_Write_COM_DATA>
	LCD_Write_COM_DATA(0x3B,0x0302);
    2802:	62 e0       	ldi	r22, 0x02	; 2
    2804:	73 e0       	ldi	r23, 0x03	; 3
    2806:	8b e3       	ldi	r24, 0x3B	; 59
    2808:	0e 94 8e 09 	call	0x131c	; 0x131c <LCD_Write_COM_DATA>
	LCD_Write_COM_DATA(0x23,0x0000);
    280c:	60 e0       	ldi	r22, 0x00	; 0
    280e:	70 e0       	ldi	r23, 0x00	; 0
    2810:	83 e2       	ldi	r24, 0x23	; 35
    2812:	0e 94 8e 09 	call	0x131c	; 0x131c <LCD_Write_COM_DATA>
	LCD_Write_COM_DATA(0x24,0x0000);
    2816:	60 e0       	ldi	r22, 0x00	; 0
    2818:	70 e0       	ldi	r23, 0x00	; 0
    281a:	84 e2       	ldi	r24, 0x24	; 36
    281c:	0e 94 8e 09 	call	0x131c	; 0x131c <LCD_Write_COM_DATA>
	LCD_Write_COM_DATA(0x25,0x8000);
    2820:	60 e0       	ldi	r22, 0x00	; 0
    2822:	70 e8       	ldi	r23, 0x80	; 128
    2824:	85 e2       	ldi	r24, 0x25	; 37
    2826:	0e 94 8e 09 	call	0x131c	; 0x131c <LCD_Write_COM_DATA>
	LCD_Write_COM_DATA(0x4f,0x0000);
    282a:	60 e0       	ldi	r22, 0x00	; 0
    282c:	70 e0       	ldi	r23, 0x00	; 0
    282e:	8f e4       	ldi	r24, 0x4F	; 79
    2830:	0e 94 8e 09 	call	0x131c	; 0x131c <LCD_Write_COM_DATA>
	LCD_Write_COM_DATA(0x4e,0x0000);
    2834:	60 e0       	ldi	r22, 0x00	; 0
    2836:	70 e0       	ldi	r23, 0x00	; 0
    2838:	8e e4       	ldi	r24, 0x4E	; 78
    283a:	0e 94 8e 09 	call	0x131c	; 0x131c <LCD_Write_COM_DATA>
	LCD_Write_COM(0x22);
    283e:	82 e2       	ldi	r24, 0x22	; 34
    2840:	0e 94 7a 09 	call	0x12f4	; 0x12f4 <LCD_Write_COM>


	sbi(CS_PORT, CS_PIN);
    2844:	85 b3       	in	r24, 0x15	; 21
    2846:	81 60       	ori	r24, 0x01	; 1
    2848:	85 bb       	out	0x15, r24	; 21
    284a:	08 95       	ret

0000284c <_ZN4UTFTC1Ev>:
		}
		st[c2+f]=0;
	}

	print(st,x,y);
}
    284c:	4f ee       	ldi	r20, 0xEF	; 239
    284e:	50 e0       	ldi	r21, 0x00	; 0
    2850:	60 e0       	ldi	r22, 0x00	; 0
    2852:	70 e0       	ldi	r23, 0x00	; 0
    2854:	fc 01       	movw	r30, r24
    2856:	45 83       	std	Z+5, r20	; 0x05
    2858:	56 83       	std	Z+6, r21	; 0x06
    285a:	67 83       	std	Z+7, r22	; 0x07
    285c:	70 87       	std	Z+8, r23	; 0x08
    285e:	4f e3       	ldi	r20, 0x3F	; 63
    2860:	51 e0       	ldi	r21, 0x01	; 1
    2862:	60 e0       	ldi	r22, 0x00	; 0
    2864:	70 e0       	ldi	r23, 0x00	; 0
    2866:	41 87       	std	Z+9, r20	; 0x09
    2868:	52 87       	std	Z+10, r21	; 0x0a
    286a:	63 87       	std	Z+11, r22	; 0x0b
    286c:	74 87       	std	Z+12, r23	; 0x0c
    286e:	0e 94 19 13 	call	0x2632	; 0x2632 <SSD1289_init>
    2872:	08 95       	ret

00002874 <_ZN4UTFT5setXYEjjjj>:
    2874:	ef 92       	push	r14
    2876:	ff 92       	push	r15
    2878:	0f 93       	push	r16
    287a:	1f 93       	push	r17
    287c:	cf 93       	push	r28
    287e:	df 93       	push	r29
    2880:	eb 01       	movw	r28, r22
    2882:	e4 2e       	mov	r14, r20
    2884:	f5 2e       	mov	r15, r21
    2886:	fc 01       	movw	r30, r24
    2888:	44 81       	ldd	r20, Z+4	; 0x04
    288a:	41 30       	cpi	r20, 0x01	; 1
    288c:	89 f4       	brne	.+34     	; 0x28b0 <_ZN4UTFT5setXYEjjjj+0x3c>
    288e:	81 85       	ldd	r24, Z+9	; 0x09
    2890:	92 85       	ldd	r25, Z+10	; 0x0a
    2892:	a3 85       	ldd	r26, Z+11	; 0x0b
    2894:	b4 85       	ldd	r27, Z+12	; 0x0c
    2896:	ac 01       	movw	r20, r24
    2898:	46 1b       	sub	r20, r22
    289a:	57 0b       	sbc	r21, r23
    289c:	82 1b       	sub	r24, r18
    289e:	93 0b       	sbc	r25, r19
    28a0:	20 2f       	mov	r18, r16
    28a2:	31 2f       	mov	r19, r17
    28a4:	04 2f       	mov	r16, r20
    28a6:	15 2f       	mov	r17, r21
    28a8:	ce 2d       	mov	r28, r14
    28aa:	df 2d       	mov	r29, r15
    28ac:	e8 2e       	mov	r14, r24
    28ae:	f9 2e       	mov	r15, r25
    28b0:	32 2f       	mov	r19, r18
    28b2:	22 27       	eor	r18, r18
    28b4:	be 01       	movw	r22, r28
    28b6:	62 0f       	add	r22, r18
    28b8:	73 1f       	adc	r23, r19
    28ba:	84 e4       	ldi	r24, 0x44	; 68
    28bc:	0e 94 8e 09 	call	0x131c	; 0x131c <LCD_Write_COM_DATA>
    28c0:	6e 2d       	mov	r22, r14
    28c2:	7f 2d       	mov	r23, r15
    28c4:	85 e4       	ldi	r24, 0x45	; 69
    28c6:	0e 94 8e 09 	call	0x131c	; 0x131c <LCD_Write_COM_DATA>
    28ca:	60 2f       	mov	r22, r16
    28cc:	71 2f       	mov	r23, r17
    28ce:	86 e4       	ldi	r24, 0x46	; 70
    28d0:	0e 94 8e 09 	call	0x131c	; 0x131c <LCD_Write_COM_DATA>
    28d4:	be 01       	movw	r22, r28
    28d6:	8e e4       	ldi	r24, 0x4E	; 78
    28d8:	0e 94 8e 09 	call	0x131c	; 0x131c <LCD_Write_COM_DATA>
    28dc:	6e 2d       	mov	r22, r14
    28de:	7f 2d       	mov	r23, r15
    28e0:	8f e4       	ldi	r24, 0x4F	; 79
    28e2:	0e 94 8e 09 	call	0x131c	; 0x131c <LCD_Write_COM_DATA>
    28e6:	82 e2       	ldi	r24, 0x22	; 34
    28e8:	0e 94 7a 09 	call	0x12f4	; 0x12f4 <LCD_Write_COM>
    28ec:	85 b3       	in	r24, 0x15	; 21
    28ee:	80 68       	ori	r24, 0x80	; 128
    28f0:	85 bb       	out	0x15, r24	; 21
    28f2:	df 91       	pop	r29
    28f4:	cf 91       	pop	r28
    28f6:	1f 91       	pop	r17
    28f8:	0f 91       	pop	r16
    28fa:	ff 90       	pop	r15
    28fc:	ef 90       	pop	r14
    28fe:	08 95       	ret

00002900 <_ZN4UTFT8fillRectEiiii>:
    2900:	8f 92       	push	r8
    2902:	9f 92       	push	r9
    2904:	af 92       	push	r10
    2906:	bf 92       	push	r11
    2908:	cf 92       	push	r12
    290a:	df 92       	push	r13
    290c:	ef 92       	push	r14
    290e:	ff 92       	push	r15
    2910:	0f 93       	push	r16
    2912:	1f 93       	push	r17
    2914:	cf 93       	push	r28
    2916:	df 93       	push	r29
    2918:	4c 01       	movw	r8, r24
    291a:	5b 01       	movw	r10, r22
    291c:	7a 01       	movw	r14, r20
    291e:	69 01       	movw	r12, r18
    2920:	e8 01       	movw	r28, r16
    2922:	26 17       	cp	r18, r22
    2924:	37 07       	cpc	r19, r23
    2926:	24 f4       	brge	.+8      	; 0x2930 <_ZN4UTFT8fillRectEiiii+0x30>
    2928:	8b 2d       	mov	r24, r11
    292a:	59 01       	movw	r10, r18
    292c:	c6 2e       	mov	r12, r22
    292e:	d8 2e       	mov	r13, r24
    2930:	ce 15       	cp	r28, r14
    2932:	df 05       	cpc	r29, r15
    2934:	2c f4       	brge	.+10     	; 0x2940 <_ZN4UTFT8fillRectEiiii+0x40>
    2936:	9e 2d       	mov	r25, r14
    2938:	8f 2d       	mov	r24, r15
    293a:	7e 01       	movw	r14, r28
    293c:	c9 2f       	mov	r28, r25
    293e:	d8 2f       	mov	r29, r24
    2940:	85 b3       	in	r24, 0x15	; 21
    2942:	8e 7f       	andi	r24, 0xFE	; 254
    2944:	85 bb       	out	0x15, r24	; 21
    2946:	8e 01       	movw	r16, r28
    2948:	96 01       	movw	r18, r12
    294a:	a7 01       	movw	r20, r14
    294c:	b5 01       	movw	r22, r10
    294e:	c4 01       	movw	r24, r8
    2950:	0e 94 3a 14 	call	0x2874	; 0x2874 <_ZN4UTFT5setXYEjjjj>
    2954:	f4 01       	movw	r30, r8
    2956:	80 81       	ld	r24, Z
    2958:	8b bb       	out	0x1b, r24	; 27
    295a:	81 81       	ldd	r24, Z+1	; 0x01
    295c:	82 bb       	out	0x12, r24	; 18
    295e:	96 01       	movw	r18, r12
    2960:	2a 19       	sub	r18, r10
    2962:	3b 09       	sbc	r19, r11
    2964:	c9 01       	movw	r24, r18
    2966:	33 0f       	add	r19, r19
    2968:	aa 0b       	sbc	r26, r26
    296a:	bb 0b       	sbc	r27, r27
    296c:	9c 01       	movw	r18, r24
    296e:	ad 01       	movw	r20, r26
    2970:	2f 5f       	subi	r18, 0xFF	; 255
    2972:	3f 4f       	sbci	r19, 0xFF	; 255
    2974:	4f 4f       	sbci	r20, 0xFF	; 255
    2976:	5f 4f       	sbci	r21, 0xFF	; 255
    2978:	be 01       	movw	r22, r28
    297a:	6e 19       	sub	r22, r14
    297c:	7f 09       	sbc	r23, r15
    297e:	cb 01       	movw	r24, r22
    2980:	77 0f       	add	r23, r23
    2982:	aa 0b       	sbc	r26, r26
    2984:	bb 0b       	sbc	r27, r27
    2986:	bc 01       	movw	r22, r24
    2988:	cd 01       	movw	r24, r26
    298a:	6f 5f       	subi	r22, 0xFF	; 255
    298c:	7f 4f       	sbci	r23, 0xFF	; 255
    298e:	8f 4f       	sbci	r24, 0xFF	; 255
    2990:	9f 4f       	sbci	r25, 0xFF	; 255
    2992:	0e 94 55 1d 	call	0x3aaa	; 0x3aaa <__mulsi3>
    2996:	0e 94 31 09 	call	0x1262	; 0x1262 <fastfill>
    299a:	8f ef       	ldi	r24, 0xFF	; 255
    299c:	82 bb       	out	0x12, r24	; 18
    299e:	8b bb       	out	0x1b, r24	; 27
    29a0:	85 b3       	in	r24, 0x15	; 21
    29a2:	8e 7f       	andi	r24, 0xFE	; 254
    29a4:	85 bb       	out	0x15, r24	; 21
    29a6:	df 91       	pop	r29
    29a8:	cf 91       	pop	r28
    29aa:	1f 91       	pop	r17
    29ac:	0f 91       	pop	r16
    29ae:	ff 90       	pop	r15
    29b0:	ef 90       	pop	r14
    29b2:	df 90       	pop	r13
    29b4:	cf 90       	pop	r12
    29b6:	bf 90       	pop	r11
    29b8:	af 90       	pop	r10
    29ba:	9f 90       	pop	r9
    29bc:	8f 90       	pop	r8
    29be:	08 95       	ret

000029c0 <_ZN4UTFT6clrScrEv>:
    29c0:	85 b3       	in	r24, 0x15	; 21
    29c2:	8e 7f       	andi	r24, 0xFE	; 254
    29c4:	85 bb       	out	0x15, r24	; 21
    29c6:	60 e0       	ldi	r22, 0x00	; 0
    29c8:	7f ee       	ldi	r23, 0xEF	; 239
    29ca:	84 e4       	ldi	r24, 0x44	; 68
    29cc:	0e 94 8e 09 	call	0x131c	; 0x131c <LCD_Write_COM_DATA>
    29d0:	60 e0       	ldi	r22, 0x00	; 0
    29d2:	70 e0       	ldi	r23, 0x00	; 0
    29d4:	85 e4       	ldi	r24, 0x45	; 69
    29d6:	0e 94 8e 09 	call	0x131c	; 0x131c <LCD_Write_COM_DATA>
    29da:	6f e3       	ldi	r22, 0x3F	; 63
    29dc:	71 e0       	ldi	r23, 0x01	; 1
    29de:	86 e4       	ldi	r24, 0x46	; 70
    29e0:	0e 94 8e 09 	call	0x131c	; 0x131c <LCD_Write_COM_DATA>
    29e4:	60 e0       	ldi	r22, 0x00	; 0
    29e6:	70 e0       	ldi	r23, 0x00	; 0
    29e8:	8e e4       	ldi	r24, 0x4E	; 78
    29ea:	0e 94 8e 09 	call	0x131c	; 0x131c <LCD_Write_COM_DATA>
    29ee:	60 e0       	ldi	r22, 0x00	; 0
    29f0:	70 e0       	ldi	r23, 0x00	; 0
    29f2:	8f e4       	ldi	r24, 0x4F	; 79
    29f4:	0e 94 8e 09 	call	0x131c	; 0x131c <LCD_Write_COM_DATA>
    29f8:	68 e7       	ldi	r22, 0x78	; 120
    29fa:	70 e6       	ldi	r23, 0x60	; 96
    29fc:	81 e1       	ldi	r24, 0x11	; 17
    29fe:	0e 94 8e 09 	call	0x131c	; 0x131c <LCD_Write_COM_DATA>
    2a02:	82 e2       	ldi	r24, 0x22	; 34
    2a04:	0e 94 7a 09 	call	0x12f4	; 0x12f4 <LCD_Write_COM>
    2a08:	85 b3       	in	r24, 0x15	; 21
    2a0a:	80 68       	ori	r24, 0x80	; 128
    2a0c:	85 bb       	out	0x15, r24	; 21
    2a0e:	12 ba       	out	0x12, r1	; 18
    2a10:	1b ba       	out	0x1b, r1	; 27
    2a12:	60 e0       	ldi	r22, 0x00	; 0
    2a14:	7c e2       	ldi	r23, 0x2C	; 44
    2a16:	81 e0       	ldi	r24, 0x01	; 1
    2a18:	90 e0       	ldi	r25, 0x00	; 0
    2a1a:	0e 94 31 09 	call	0x1262	; 0x1262 <fastfill>
    2a1e:	8f ef       	ldi	r24, 0xFF	; 255
    2a20:	82 bb       	out	0x12, r24	; 18
    2a22:	8b bb       	out	0x1b, r24	; 27
    2a24:	85 b3       	in	r24, 0x15	; 21
    2a26:	8e 7f       	andi	r24, 0xFE	; 254
    2a28:	85 bb       	out	0x15, r24	; 21
    2a2a:	08 95       	ret

00002a2c <_ZN4UTFT8setColorEhhh>:
    2a2c:	e4 2f       	mov	r30, r20
    2a2e:	f0 e0       	ldi	r31, 0x00	; 0
    2a30:	f5 95       	asr	r31
    2a32:	e7 95       	ror	r30
    2a34:	f5 95       	asr	r31
    2a36:	e7 95       	ror	r30
    2a38:	f5 95       	asr	r31
    2a3a:	e7 95       	ror	r30
    2a3c:	f5 95       	asr	r31
    2a3e:	e7 95       	ror	r30
    2a40:	f5 95       	asr	r31
    2a42:	e7 95       	ror	r30
    2a44:	68 7f       	andi	r22, 0xF8	; 248
    2a46:	e6 2b       	or	r30, r22
    2a48:	dc 01       	movw	r26, r24
    2a4a:	ec 93       	st	X, r30
    2a4c:	4c 71       	andi	r20, 0x1C	; 28
    2a4e:	50 e0       	ldi	r21, 0x00	; 0
    2a50:	44 0f       	add	r20, r20
    2a52:	55 1f       	adc	r21, r21
    2a54:	44 0f       	add	r20, r20
    2a56:	55 1f       	adc	r21, r21
    2a58:	44 0f       	add	r20, r20
    2a5a:	55 1f       	adc	r21, r21
    2a5c:	30 e0       	ldi	r19, 0x00	; 0
    2a5e:	35 95       	asr	r19
    2a60:	27 95       	ror	r18
    2a62:	35 95       	asr	r19
    2a64:	27 95       	ror	r18
    2a66:	35 95       	asr	r19
    2a68:	27 95       	ror	r18
    2a6a:	42 2b       	or	r20, r18
    2a6c:	11 96       	adiw	r26, 0x01	; 1
    2a6e:	4c 93       	st	X, r20
    2a70:	08 95       	ret

00002a72 <_ZN4UTFT12setBackColorEhhh>:
    2a72:	e4 2f       	mov	r30, r20
    2a74:	f0 e0       	ldi	r31, 0x00	; 0
    2a76:	f5 95       	asr	r31
    2a78:	e7 95       	ror	r30
    2a7a:	f5 95       	asr	r31
    2a7c:	e7 95       	ror	r30
    2a7e:	f5 95       	asr	r31
    2a80:	e7 95       	ror	r30
    2a82:	f5 95       	asr	r31
    2a84:	e7 95       	ror	r30
    2a86:	f5 95       	asr	r31
    2a88:	e7 95       	ror	r30
    2a8a:	68 7f       	andi	r22, 0xF8	; 248
    2a8c:	e6 2b       	or	r30, r22
    2a8e:	dc 01       	movw	r26, r24
    2a90:	12 96       	adiw	r26, 0x02	; 2
    2a92:	ec 93       	st	X, r30
    2a94:	12 97       	sbiw	r26, 0x02	; 2
    2a96:	4c 71       	andi	r20, 0x1C	; 28
    2a98:	50 e0       	ldi	r21, 0x00	; 0
    2a9a:	44 0f       	add	r20, r20
    2a9c:	55 1f       	adc	r21, r21
    2a9e:	44 0f       	add	r20, r20
    2aa0:	55 1f       	adc	r21, r21
    2aa2:	44 0f       	add	r20, r20
    2aa4:	55 1f       	adc	r21, r21
    2aa6:	30 e0       	ldi	r19, 0x00	; 0
    2aa8:	35 95       	asr	r19
    2aaa:	27 95       	ror	r18
    2aac:	35 95       	asr	r19
    2aae:	27 95       	ror	r18
    2ab0:	35 95       	asr	r19
    2ab2:	27 95       	ror	r18
    2ab4:	42 2b       	or	r20, r18
    2ab6:	13 96       	adiw	r26, 0x03	; 3
    2ab8:	4c 93       	st	X, r20
    2aba:	08 95       	ret

00002abc <_ZN4UTFT7InitLCDEh>:
    2abc:	cf 93       	push	r28
    2abe:	df 93       	push	r29
    2ac0:	ec 01       	movw	r28, r24
    2ac2:	6c 83       	std	Y+4, r22	; 0x04
    2ac4:	2f ef       	ldi	r18, 0xFF	; 255
    2ac6:	4f ef       	ldi	r20, 0xFF	; 255
    2ac8:	6f ef       	ldi	r22, 0xFF	; 255
    2aca:	0e 94 16 15 	call	0x2a2c	; 0x2a2c <_ZN4UTFT8setColorEhhh>
    2ace:	20 e0       	ldi	r18, 0x00	; 0
    2ad0:	40 e0       	ldi	r20, 0x00	; 0
    2ad2:	60 e0       	ldi	r22, 0x00	; 0
    2ad4:	ce 01       	movw	r24, r28
    2ad6:	0e 94 39 15 	call	0x2a72	; 0x2a72 <_ZN4UTFT12setBackColorEhhh>
    2ada:	1e 86       	std	Y+14, r1	; 0x0e
    2adc:	1d 86       	std	Y+13, r1	; 0x0d
    2ade:	df 91       	pop	r29
    2ae0:	cf 91       	pop	r28
    2ae2:	08 95       	ret

00002ae4 <_ZN4UTFT8setPixelEj>:
    2ae4:	87 2f       	mov	r24, r23
    2ae6:	0e 94 81 09 	call	0x1302	; 0x1302 <LCD_Write_DATA>
    2aea:	08 95       	ret

00002aec <_ZN4UTFT9drawHLineEiii>:
    2aec:	ef 92       	push	r14
    2aee:	ff 92       	push	r15
    2af0:	0f 93       	push	r16
    2af2:	1f 93       	push	r17
    2af4:	cf 93       	push	r28
    2af6:	df 93       	push	r29
    2af8:	7c 01       	movw	r14, r24
    2afa:	e9 01       	movw	r28, r18
    2afc:	dd 23       	and	r29, r29
    2afe:	2c f4       	brge	.+10     	; 0x2b0a <_ZN4UTFT9drawHLineEiii+0x1e>
    2b00:	62 0f       	add	r22, r18
    2b02:	73 1f       	adc	r23, r19
    2b04:	d1 95       	neg	r29
    2b06:	c1 95       	neg	r28
    2b08:	d1 09       	sbc	r29, r1
    2b0a:	85 b3       	in	r24, 0x15	; 21
    2b0c:	8e 7f       	andi	r24, 0xFE	; 254
    2b0e:	85 bb       	out	0x15, r24	; 21
    2b10:	9b 01       	movw	r18, r22
    2b12:	2c 0f       	add	r18, r28
    2b14:	3d 1f       	adc	r19, r29
    2b16:	8a 01       	movw	r16, r20
    2b18:	c7 01       	movw	r24, r14
    2b1a:	0e 94 3a 14 	call	0x2874	; 0x2874 <_ZN4UTFT5setXYEjjjj>
    2b1e:	f7 01       	movw	r30, r14
    2b20:	80 81       	ld	r24, Z
    2b22:	8b bb       	out	0x1b, r24	; 27
    2b24:	81 81       	ldd	r24, Z+1	; 0x01
    2b26:	82 bb       	out	0x12, r24	; 18
    2b28:	be 01       	movw	r22, r28
    2b2a:	dd 0f       	add	r29, r29
    2b2c:	88 0b       	sbc	r24, r24
    2b2e:	99 0b       	sbc	r25, r25
    2b30:	0e 94 31 09 	call	0x1262	; 0x1262 <fastfill>
    2b34:	8f ef       	ldi	r24, 0xFF	; 255
    2b36:	82 bb       	out	0x12, r24	; 18
    2b38:	8b bb       	out	0x1b, r24	; 27
    2b3a:	85 b3       	in	r24, 0x15	; 21
    2b3c:	81 60       	ori	r24, 0x01	; 1
    2b3e:	85 bb       	out	0x15, r24	; 21
    2b40:	df 91       	pop	r29
    2b42:	cf 91       	pop	r28
    2b44:	1f 91       	pop	r17
    2b46:	0f 91       	pop	r16
    2b48:	ff 90       	pop	r15
    2b4a:	ef 90       	pop	r14
    2b4c:	08 95       	ret

00002b4e <_ZN4UTFT9drawVLineEiii>:
    2b4e:	ef 92       	push	r14
    2b50:	ff 92       	push	r15
    2b52:	0f 93       	push	r16
    2b54:	1f 93       	push	r17
    2b56:	cf 93       	push	r28
    2b58:	df 93       	push	r29
    2b5a:	7c 01       	movw	r14, r24
    2b5c:	e9 01       	movw	r28, r18
    2b5e:	dd 23       	and	r29, r29
    2b60:	2c f4       	brge	.+10     	; 0x2b6c <_ZN4UTFT9drawVLineEiii+0x1e>
    2b62:	42 0f       	add	r20, r18
    2b64:	53 1f       	adc	r21, r19
    2b66:	d1 95       	neg	r29
    2b68:	c1 95       	neg	r28
    2b6a:	d1 09       	sbc	r29, r1
    2b6c:	85 b3       	in	r24, 0x15	; 21
    2b6e:	8e 7f       	andi	r24, 0xFE	; 254
    2b70:	85 bb       	out	0x15, r24	; 21
    2b72:	8a 01       	movw	r16, r20
    2b74:	0c 0f       	add	r16, r28
    2b76:	1d 1f       	adc	r17, r29
    2b78:	9b 01       	movw	r18, r22
    2b7a:	c7 01       	movw	r24, r14
    2b7c:	0e 94 3a 14 	call	0x2874	; 0x2874 <_ZN4UTFT5setXYEjjjj>
    2b80:	f7 01       	movw	r30, r14
    2b82:	80 81       	ld	r24, Z
    2b84:	8b bb       	out	0x1b, r24	; 27
    2b86:	81 81       	ldd	r24, Z+1	; 0x01
    2b88:	82 bb       	out	0x12, r24	; 18
    2b8a:	be 01       	movw	r22, r28
    2b8c:	dd 0f       	add	r29, r29
    2b8e:	88 0b       	sbc	r24, r24
    2b90:	99 0b       	sbc	r25, r25
    2b92:	0e 94 31 09 	call	0x1262	; 0x1262 <fastfill>
    2b96:	8f ef       	ldi	r24, 0xFF	; 255
    2b98:	82 bb       	out	0x12, r24	; 18
    2b9a:	8b bb       	out	0x1b, r24	; 27
    2b9c:	85 b3       	in	r24, 0x15	; 21
    2b9e:	81 60       	ori	r24, 0x01	; 1
    2ba0:	85 bb       	out	0x15, r24	; 21
    2ba2:	df 91       	pop	r29
    2ba4:	cf 91       	pop	r28
    2ba6:	1f 91       	pop	r17
    2ba8:	0f 91       	pop	r16
    2baa:	ff 90       	pop	r15
    2bac:	ef 90       	pop	r14
    2bae:	08 95       	ret

00002bb0 <_ZN4UTFT8drawRectEiiii>:
    2bb0:	8f 92       	push	r8
    2bb2:	9f 92       	push	r9
    2bb4:	af 92       	push	r10
    2bb6:	bf 92       	push	r11
    2bb8:	cf 92       	push	r12
    2bba:	df 92       	push	r13
    2bbc:	ef 92       	push	r14
    2bbe:	ff 92       	push	r15
    2bc0:	0f 93       	push	r16
    2bc2:	1f 93       	push	r17
    2bc4:	cf 93       	push	r28
    2bc6:	df 93       	push	r29
    2bc8:	5c 01       	movw	r10, r24
    2bca:	7b 01       	movw	r14, r22
    2bcc:	ea 01       	movw	r28, r20
    2bce:	69 01       	movw	r12, r18
    2bd0:	26 17       	cp	r18, r22
    2bd2:	37 07       	cpc	r19, r23
    2bd4:	24 f4       	brge	.+8      	; 0x2bde <_ZN4UTFT8drawRectEiiii+0x2e>
    2bd6:	8f 2d       	mov	r24, r15
    2bd8:	79 01       	movw	r14, r18
    2bda:	c6 2e       	mov	r12, r22
    2bdc:	d8 2e       	mov	r13, r24
    2bde:	0c 17       	cp	r16, r28
    2be0:	1d 07       	cpc	r17, r29
    2be2:	2c f4       	brge	.+10     	; 0x2bee <_ZN4UTFT8drawRectEiiii+0x3e>
    2be4:	9c 2f       	mov	r25, r28
    2be6:	8d 2f       	mov	r24, r29
    2be8:	e8 01       	movw	r28, r16
    2bea:	09 2f       	mov	r16, r25
    2bec:	18 2f       	mov	r17, r24
    2bee:	46 01       	movw	r8, r12
    2bf0:	8e 18       	sub	r8, r14
    2bf2:	9f 08       	sbc	r9, r15
    2bf4:	94 01       	movw	r18, r8
    2bf6:	ae 01       	movw	r20, r28
    2bf8:	b7 01       	movw	r22, r14
    2bfa:	c5 01       	movw	r24, r10
    2bfc:	0e 94 76 15 	call	0x2aec	; 0x2aec <_ZN4UTFT9drawHLineEiii>
    2c00:	94 01       	movw	r18, r8
    2c02:	a8 01       	movw	r20, r16
    2c04:	b7 01       	movw	r22, r14
    2c06:	c5 01       	movw	r24, r10
    2c08:	0e 94 76 15 	call	0x2aec	; 0x2aec <_ZN4UTFT9drawHLineEiii>
    2c0c:	0c 1b       	sub	r16, r28
    2c0e:	1d 0b       	sbc	r17, r29
    2c10:	98 01       	movw	r18, r16
    2c12:	ae 01       	movw	r20, r28
    2c14:	b7 01       	movw	r22, r14
    2c16:	c5 01       	movw	r24, r10
    2c18:	0e 94 a7 15 	call	0x2b4e	; 0x2b4e <_ZN4UTFT9drawVLineEiii>
    2c1c:	98 01       	movw	r18, r16
    2c1e:	ae 01       	movw	r20, r28
    2c20:	b6 01       	movw	r22, r12
    2c22:	c5 01       	movw	r24, r10
    2c24:	0e 94 a7 15 	call	0x2b4e	; 0x2b4e <_ZN4UTFT9drawVLineEiii>
    2c28:	df 91       	pop	r29
    2c2a:	cf 91       	pop	r28
    2c2c:	1f 91       	pop	r17
    2c2e:	0f 91       	pop	r16
    2c30:	ff 90       	pop	r15
    2c32:	ef 90       	pop	r14
    2c34:	df 90       	pop	r13
    2c36:	cf 90       	pop	r12
    2c38:	bf 90       	pop	r11
    2c3a:	af 90       	pop	r10
    2c3c:	9f 90       	pop	r9
    2c3e:	8f 90       	pop	r8
    2c40:	08 95       	ret

00002c42 <_ZN4UTFT9printCharEhii>:
    2c42:	af 92       	push	r10
    2c44:	bf 92       	push	r11
    2c46:	cf 92       	push	r12
    2c48:	df 92       	push	r13
    2c4a:	ef 92       	push	r14
    2c4c:	ff 92       	push	r15
    2c4e:	0f 93       	push	r16
    2c50:	1f 93       	push	r17
    2c52:	cf 93       	push	r28
    2c54:	df 93       	push	r29
    2c56:	ec 01       	movw	r28, r24
    2c58:	7a 01       	movw	r14, r20
    2c5a:	89 01       	movw	r16, r18
    2c5c:	85 b3       	in	r24, 0x15	; 21
    2c5e:	8e 7f       	andi	r24, 0xFE	; 254
    2c60:	85 bb       	out	0x15, r24	; 21
    2c62:	8c 81       	ldd	r24, Y+4	; 0x04
    2c64:	81 11       	cpse	r24, r1
    2c66:	69 c0       	rjmp	.+210    	; 0x2d3a <_ZN4UTFT9printCharEhii+0xf8>
    2c68:	29 89       	ldd	r18, Y+17	; 0x11
    2c6a:	86 2f       	mov	r24, r22
    2c6c:	90 e0       	ldi	r25, 0x00	; 0
    2c6e:	82 1b       	sub	r24, r18
    2c70:	91 09       	sbc	r25, r1
    2c72:	4f 85       	ldd	r20, Y+15	; 0x0f
    2c74:	54 2f       	mov	r21, r20
    2c76:	56 95       	lsr	r21
    2c78:	56 95       	lsr	r21
    2c7a:	56 95       	lsr	r21
    2c7c:	28 89       	ldd	r18, Y+16	; 0x10
    2c7e:	30 e0       	ldi	r19, 0x00	; 0
    2c80:	52 9f       	mul	r21, r18
    2c82:	b0 01       	movw	r22, r0
    2c84:	53 9f       	mul	r21, r19
    2c86:	70 0d       	add	r23, r0
    2c88:	11 24       	eor	r1, r1
    2c8a:	86 9f       	mul	r24, r22
    2c8c:	60 01       	movw	r12, r0
    2c8e:	87 9f       	mul	r24, r23
    2c90:	d0 0c       	add	r13, r0
    2c92:	96 9f       	mul	r25, r22
    2c94:	d0 0c       	add	r13, r0
    2c96:	11 24       	eor	r1, r1
    2c98:	84 e0       	ldi	r24, 0x04	; 4
    2c9a:	c8 0e       	add	r12, r24
    2c9c:	d1 1c       	adc	r13, r1
    2c9e:	c7 01       	movw	r24, r14
    2ca0:	84 0f       	add	r24, r20
    2ca2:	91 1d       	adc	r25, r1
    2ca4:	20 0f       	add	r18, r16
    2ca6:	31 1f       	adc	r19, r17
    2ca8:	59 01       	movw	r10, r18
    2caa:	41 e0       	ldi	r20, 0x01	; 1
    2cac:	a4 1a       	sub	r10, r20
    2cae:	b1 08       	sbc	r11, r1
    2cb0:	60 e0       	ldi	r22, 0x00	; 0
    2cb2:	70 e0       	ldi	r23, 0x00	; 0
    2cb4:	7f ef       	ldi	r23, 0xFF	; 255
    2cb6:	78 0f       	add	r23, r24
    2cb8:	6e 0d       	add	r22, r14
    2cba:	7f 1d       	adc	r23, r15
    2cbc:	84 e4       	ldi	r24, 0x44	; 68
    2cbe:	0e 94 8e 09 	call	0x131c	; 0x131c <LCD_Write_COM_DATA>
    2cc2:	b8 01       	movw	r22, r16
    2cc4:	85 e4       	ldi	r24, 0x45	; 69
    2cc6:	0e 94 8e 09 	call	0x131c	; 0x131c <LCD_Write_COM_DATA>
    2cca:	b5 01       	movw	r22, r10
    2ccc:	86 e4       	ldi	r24, 0x46	; 70
    2cce:	0e 94 8e 09 	call	0x131c	; 0x131c <LCD_Write_COM_DATA>
    2cd2:	b7 01       	movw	r22, r14
    2cd4:	8e e4       	ldi	r24, 0x4E	; 78
    2cd6:	0e 94 8e 09 	call	0x131c	; 0x131c <LCD_Write_COM_DATA>
    2cda:	b8 01       	movw	r22, r16
    2cdc:	8f e4       	ldi	r24, 0x4F	; 79
    2cde:	0e 94 8e 09 	call	0x131c	; 0x131c <LCD_Write_COM_DATA>
    2ce2:	60 e7       	ldi	r22, 0x70	; 112
    2ce4:	70 e6       	ldi	r23, 0x60	; 96
    2ce6:	81 e1       	ldi	r24, 0x11	; 17
    2ce8:	0e 94 8e 09 	call	0x131c	; 0x131c <LCD_Write_COM_DATA>
    2cec:	82 e2       	ldi	r24, 0x22	; 34
    2cee:	0e 94 7a 09 	call	0x12f4	; 0x12f4 <LCD_Write_COM>
    2cf2:	85 b3       	in	r24, 0x15	; 21
    2cf4:	80 68       	ori	r24, 0x80	; 128
    2cf6:	85 bb       	out	0x15, r24	; 21
    2cf8:	2a 81       	ldd	r18, Y+2	; 0x02
    2cfa:	30 e0       	ldi	r19, 0x00	; 0
    2cfc:	32 2f       	mov	r19, r18
    2cfe:	22 27       	eor	r18, r18
    2d00:	8b 81       	ldd	r24, Y+3	; 0x03
    2d02:	28 2b       	or	r18, r24
    2d04:	48 81       	ld	r20, Y
    2d06:	50 e0       	ldi	r21, 0x00	; 0
    2d08:	54 2f       	mov	r21, r20
    2d0a:	44 27       	eor	r20, r20
    2d0c:	89 81       	ldd	r24, Y+1	; 0x01
    2d0e:	48 2b       	or	r20, r24
    2d10:	6d 85       	ldd	r22, Y+13	; 0x0d
    2d12:	7e 85       	ldd	r23, Y+14	; 0x0e
    2d14:	6c 0d       	add	r22, r12
    2d16:	7d 1d       	adc	r23, r13
    2d18:	88 89       	ldd	r24, Y+16	; 0x10
    2d1a:	9f 85       	ldd	r25, Y+15	; 0x0f
    2d1c:	89 9f       	mul	r24, r25
    2d1e:	c0 01       	movw	r24, r0
    2d20:	11 24       	eor	r1, r1
    2d22:	99 23       	and	r25, r25
    2d24:	0c f4       	brge	.+2      	; 0x2d28 <_ZN4UTFT9printCharEhii+0xe6>
    2d26:	07 96       	adiw	r24, 0x07	; 7
    2d28:	95 95       	asr	r25
    2d2a:	87 95       	ror	r24
    2d2c:	95 95       	asr	r25
    2d2e:	87 95       	ror	r24
    2d30:	95 95       	asr	r25
    2d32:	87 95       	ror	r24
    2d34:	0e 94 a2 08 	call	0x1144	; 0x1144 <fastbitmap_1bit>
    2d38:	6f c0       	rjmp	.+222    	; 0x2e18 <_ZN4UTFT9printCharEhii+0x1d6>
    2d3a:	29 89       	ldd	r18, Y+17	; 0x11
    2d3c:	86 2f       	mov	r24, r22
    2d3e:	90 e0       	ldi	r25, 0x00	; 0
    2d40:	82 1b       	sub	r24, r18
    2d42:	91 09       	sbc	r25, r1
    2d44:	4f 85       	ldd	r20, Y+15	; 0x0f
    2d46:	54 2f       	mov	r21, r20
    2d48:	56 95       	lsr	r21
    2d4a:	56 95       	lsr	r21
    2d4c:	56 95       	lsr	r21
    2d4e:	28 89       	ldd	r18, Y+16	; 0x10
    2d50:	30 e0       	ldi	r19, 0x00	; 0
    2d52:	52 9f       	mul	r21, r18
    2d54:	b0 01       	movw	r22, r0
    2d56:	53 9f       	mul	r21, r19
    2d58:	70 0d       	add	r23, r0
    2d5a:	11 24       	eor	r1, r1
    2d5c:	86 9f       	mul	r24, r22
    2d5e:	60 01       	movw	r12, r0
    2d60:	87 9f       	mul	r24, r23
    2d62:	d0 0c       	add	r13, r0
    2d64:	96 9f       	mul	r25, r22
    2d66:	d0 0c       	add	r13, r0
    2d68:	11 24       	eor	r1, r1
    2d6a:	84 e0       	ldi	r24, 0x04	; 4
    2d6c:	c8 0e       	add	r12, r24
    2d6e:	d1 1c       	adc	r13, r1
    2d70:	c7 01       	movw	r24, r14
    2d72:	84 0f       	add	r24, r20
    2d74:	91 1d       	adc	r25, r1
    2d76:	01 97       	sbiw	r24, 0x01	; 1
    2d78:	20 0f       	add	r18, r16
    2d7a:	31 1f       	adc	r19, r17
    2d7c:	49 85       	ldd	r20, Y+9	; 0x09
    2d7e:	5a 85       	ldd	r21, Y+10	; 0x0a
    2d80:	6b 85       	ldd	r22, Y+11	; 0x0b
    2d82:	7c 85       	ldd	r23, Y+12	; 0x0c
    2d84:	5a 01       	movw	r10, r20
    2d86:	ae 18       	sub	r10, r14
    2d88:	bf 08       	sbc	r11, r15
    2d8a:	7a 01       	movw	r14, r20
    2d8c:	e8 1a       	sub	r14, r24
    2d8e:	f9 0a       	sbc	r15, r25
    2d90:	60 e0       	ldi	r22, 0x00	; 0
    2d92:	70 e0       	ldi	r23, 0x00	; 0
    2d94:	7f ef       	ldi	r23, 0xFF	; 255
    2d96:	72 0f       	add	r23, r18
    2d98:	60 0f       	add	r22, r16
    2d9a:	71 1f       	adc	r23, r17
    2d9c:	84 e4       	ldi	r24, 0x44	; 68
    2d9e:	0e 94 8e 09 	call	0x131c	; 0x131c <LCD_Write_COM_DATA>
    2da2:	b7 01       	movw	r22, r14
    2da4:	85 e4       	ldi	r24, 0x45	; 69
    2da6:	0e 94 8e 09 	call	0x131c	; 0x131c <LCD_Write_COM_DATA>
    2daa:	b5 01       	movw	r22, r10
    2dac:	86 e4       	ldi	r24, 0x46	; 70
    2dae:	0e 94 8e 09 	call	0x131c	; 0x131c <LCD_Write_COM_DATA>
    2db2:	b8 01       	movw	r22, r16
    2db4:	8e e4       	ldi	r24, 0x4E	; 78
    2db6:	0e 94 8e 09 	call	0x131c	; 0x131c <LCD_Write_COM_DATA>
    2dba:	b5 01       	movw	r22, r10
    2dbc:	8f e4       	ldi	r24, 0x4F	; 79
    2dbe:	0e 94 8e 09 	call	0x131c	; 0x131c <LCD_Write_COM_DATA>
    2dc2:	68 e5       	ldi	r22, 0x58	; 88
    2dc4:	70 e6       	ldi	r23, 0x60	; 96
    2dc6:	81 e1       	ldi	r24, 0x11	; 17
    2dc8:	0e 94 8e 09 	call	0x131c	; 0x131c <LCD_Write_COM_DATA>
    2dcc:	82 e2       	ldi	r24, 0x22	; 34
    2dce:	0e 94 7a 09 	call	0x12f4	; 0x12f4 <LCD_Write_COM>
    2dd2:	85 b3       	in	r24, 0x15	; 21
    2dd4:	80 68       	ori	r24, 0x80	; 128
    2dd6:	85 bb       	out	0x15, r24	; 21
    2dd8:	2a 81       	ldd	r18, Y+2	; 0x02
    2dda:	30 e0       	ldi	r19, 0x00	; 0
    2ddc:	32 2f       	mov	r19, r18
    2dde:	22 27       	eor	r18, r18
    2de0:	8b 81       	ldd	r24, Y+3	; 0x03
    2de2:	28 2b       	or	r18, r24
    2de4:	48 81       	ld	r20, Y
    2de6:	50 e0       	ldi	r21, 0x00	; 0
    2de8:	54 2f       	mov	r21, r20
    2dea:	44 27       	eor	r20, r20
    2dec:	89 81       	ldd	r24, Y+1	; 0x01
    2dee:	48 2b       	or	r20, r24
    2df0:	6d 85       	ldd	r22, Y+13	; 0x0d
    2df2:	7e 85       	ldd	r23, Y+14	; 0x0e
    2df4:	6c 0d       	add	r22, r12
    2df6:	7d 1d       	adc	r23, r13
    2df8:	88 89       	ldd	r24, Y+16	; 0x10
    2dfa:	9f 85       	ldd	r25, Y+15	; 0x0f
    2dfc:	89 9f       	mul	r24, r25
    2dfe:	c0 01       	movw	r24, r0
    2e00:	11 24       	eor	r1, r1
    2e02:	99 23       	and	r25, r25
    2e04:	0c f4       	brge	.+2      	; 0x2e08 <_ZN4UTFT9printCharEhii+0x1c6>
    2e06:	07 96       	adiw	r24, 0x07	; 7
    2e08:	95 95       	asr	r25
    2e0a:	87 95       	ror	r24
    2e0c:	95 95       	asr	r25
    2e0e:	87 95       	ror	r24
    2e10:	95 95       	asr	r25
    2e12:	87 95       	ror	r24
    2e14:	0e 94 a2 08 	call	0x1144	; 0x1144 <fastbitmap_1bit>
    2e18:	85 b3       	in	r24, 0x15	; 21
    2e1a:	81 60       	ori	r24, 0x01	; 1
    2e1c:	85 bb       	out	0x15, r24	; 21
    2e1e:	df 91       	pop	r29
    2e20:	cf 91       	pop	r28
    2e22:	1f 91       	pop	r17
    2e24:	0f 91       	pop	r16
    2e26:	ff 90       	pop	r15
    2e28:	ef 90       	pop	r14
    2e2a:	df 90       	pop	r13
    2e2c:	cf 90       	pop	r12
    2e2e:	bf 90       	pop	r11
    2e30:	af 90       	pop	r10
    2e32:	08 95       	ret

00002e34 <_ZN4UTFT10rotateCharEhiiii>:
    2e34:	2f 92       	push	r2
    2e36:	3f 92       	push	r3
    2e38:	4f 92       	push	r4
    2e3a:	5f 92       	push	r5
    2e3c:	6f 92       	push	r6
    2e3e:	7f 92       	push	r7
    2e40:	8f 92       	push	r8
    2e42:	9f 92       	push	r9
    2e44:	af 92       	push	r10
    2e46:	bf 92       	push	r11
    2e48:	cf 92       	push	r12
    2e4a:	df 92       	push	r13
    2e4c:	ef 92       	push	r14
    2e4e:	ff 92       	push	r15
    2e50:	0f 93       	push	r16
    2e52:	1f 93       	push	r17
    2e54:	cf 93       	push	r28
    2e56:	df 93       	push	r29
    2e58:	cd b7       	in	r28, 0x3d	; 61
    2e5a:	de b7       	in	r29, 0x3e	; 62
    2e5c:	6b 97       	sbiw	r28, 0x1b	; 27
    2e5e:	0f b6       	in	r0, 0x3f	; 63
    2e60:	f8 94       	cli
    2e62:	de bf       	out	0x3e, r29	; 62
    2e64:	0f be       	out	0x3f, r0	; 63
    2e66:	cd bf       	out	0x3d, r28	; 61
    2e68:	5c 01       	movw	r10, r24
    2e6a:	69 83       	std	Y+1, r22	; 0x01
    2e6c:	3a 01       	movw	r6, r20
    2e6e:	49 01       	movw	r8, r18
    2e70:	1f 8b       	std	Y+23, r17	; 0x17
    2e72:	0e 8b       	std	Y+22, r16	; 0x16
    2e74:	b7 01       	movw	r22, r14
    2e76:	ff 0c       	add	r15, r15
    2e78:	88 0b       	sbc	r24, r24
    2e7a:	99 0b       	sbc	r25, r25
    2e7c:	0e 94 a8 1b 	call	0x3750	; 0x3750 <__floatsisf>
    2e80:	29 e2       	ldi	r18, 0x29	; 41
    2e82:	3c e5       	ldi	r19, 0x5C	; 92
    2e84:	4f e8       	ldi	r20, 0x8F	; 143
    2e86:	5c e3       	ldi	r21, 0x3C	; 60
    2e88:	0e 94 97 1c 	call	0x392e	; 0x392e <__mulsf3>
    2e8c:	69 8b       	std	Y+17, r22	; 0x11
    2e8e:	7a 8b       	std	Y+18, r23	; 0x12
    2e90:	8b 8b       	std	Y+19, r24	; 0x13
    2e92:	9c 8b       	std	Y+20, r25	; 0x14
    2e94:	85 b3       	in	r24, 0x15	; 21
    2e96:	8e 7f       	andi	r24, 0xFE	; 254
    2e98:	85 bb       	out	0x15, r24	; 21
    2e9a:	d5 01       	movw	r26, r10
    2e9c:	51 96       	adiw	r26, 0x11	; 17
    2e9e:	8c 91       	ld	r24, X
    2ea0:	b9 81       	ldd	r27, Y+1	; 0x01
    2ea2:	2b 2f       	mov	r18, r27
    2ea4:	30 e0       	ldi	r19, 0x00	; 0
    2ea6:	28 1b       	sub	r18, r24
    2ea8:	31 09       	sbc	r19, r1
    2eaa:	f5 01       	movw	r30, r10
    2eac:	87 85       	ldd	r24, Z+15	; 0x0f
    2eae:	86 95       	lsr	r24
    2eb0:	86 95       	lsr	r24
    2eb2:	86 95       	lsr	r24
    2eb4:	90 89       	ldd	r25, Z+16	; 0x10
    2eb6:	89 9f       	mul	r24, r25
    2eb8:	c0 01       	movw	r24, r0
    2eba:	11 24       	eor	r1, r1
    2ebc:	28 9f       	mul	r18, r24
    2ebe:	a0 01       	movw	r20, r0
    2ec0:	29 9f       	mul	r18, r25
    2ec2:	50 0d       	add	r21, r0
    2ec4:	38 9f       	mul	r19, r24
    2ec6:	50 0d       	add	r21, r0
    2ec8:	11 24       	eor	r1, r1
    2eca:	9a 01       	movw	r18, r20
    2ecc:	2c 5f       	subi	r18, 0xFC	; 252
    2ece:	3f 4f       	sbci	r19, 0xFF	; 255
    2ed0:	39 8f       	std	Y+25, r19	; 0x19
    2ed2:	28 8f       	std	Y+24, r18	; 0x18
    2ed4:	1d 8a       	std	Y+21, r1	; 0x15
    2ed6:	d5 01       	movw	r26, r10
    2ed8:	50 96       	adiw	r26, 0x10	; 16
    2eda:	8c 91       	ld	r24, X
    2edc:	bd 89       	ldd	r27, Y+21	; 0x15
    2ede:	b8 17       	cp	r27, r24
    2ee0:	08 f0       	brcs	.+2      	; 0x2ee4 <_ZN4UTFT10rotateCharEhiiii+0xb0>
    2ee2:	fb c0       	rjmp	.+502    	; 0x30da <_ZN4UTFT10rotateCharEhiiii+0x2a6>
    2ee4:	41 2c       	mov	r4, r1
    2ee6:	51 2c       	mov	r5, r1
    2ee8:	f5 01       	movw	r30, r10
    2eea:	87 85       	ldd	r24, Z+15	; 0x0f
    2eec:	86 95       	lsr	r24
    2eee:	86 95       	lsr	r24
    2ef0:	86 95       	lsr	r24
    2ef2:	28 2f       	mov	r18, r24
    2ef4:	30 e0       	ldi	r19, 0x00	; 0
    2ef6:	42 16       	cp	r4, r18
    2ef8:	53 06       	cpc	r5, r19
    2efa:	0c f0       	brlt	.+2      	; 0x2efe <_ZN4UTFT10rotateCharEhiiii+0xca>
    2efc:	e4 c0       	rjmp	.+456    	; 0x30c6 <_ZN4UTFT10rotateCharEhiiii+0x292>
    2efe:	05 84       	ldd	r0, Z+13	; 0x0d
    2f00:	f6 85       	ldd	r31, Z+14	; 0x0e
    2f02:	e0 2d       	mov	r30, r0
    2f04:	88 8d       	ldd	r24, Y+24	; 0x18
    2f06:	99 8d       	ldd	r25, Y+25	; 0x19
    2f08:	84 0d       	add	r24, r4
    2f0a:	95 1d       	adc	r25, r5
    2f0c:	e8 0f       	add	r30, r24
    2f0e:	f9 1f       	adc	r31, r25
    2f10:	24 90       	lpm	r2, Z
    2f12:	31 2c       	mov	r3, r1
    2f14:	3a 8e       	std	Y+26, r3	; 0x1a
    2f16:	2b 8e       	std	Y+27, r2	; 0x1b
    2f18:	fa 8d       	ldd	r31, Y+26	; 0x1a
    2f1a:	f8 30       	cpi	r31, 0x08	; 8
    2f1c:	08 f0       	brcs	.+2      	; 0x2f20 <_ZN4UTFT10rotateCharEhiiii+0xec>
    2f1e:	cf c0       	rjmp	.+414    	; 0x30be <_ZN4UTFT10rotateCharEhiiii+0x28a>
    2f20:	2f 2e       	mov	r2, r31
    2f22:	31 2c       	mov	r3, r1
    2f24:	b2 01       	movw	r22, r4
    2f26:	66 0f       	add	r22, r22
    2f28:	77 1f       	adc	r23, r23
    2f2a:	66 0f       	add	r22, r22
    2f2c:	77 1f       	adc	r23, r23
    2f2e:	66 0f       	add	r22, r22
    2f30:	77 1f       	adc	r23, r23
    2f32:	62 0d       	add	r22, r2
    2f34:	73 1d       	adc	r23, r3
    2f36:	d5 01       	movw	r26, r10
    2f38:	1f 96       	adiw	r26, 0x0f	; 15
    2f3a:	2c 91       	ld	r18, X
    2f3c:	ee 89       	ldd	r30, Y+22	; 0x16
    2f3e:	ff 89       	ldd	r31, Y+23	; 0x17
    2f40:	2e 9f       	mul	r18, r30
    2f42:	c0 01       	movw	r24, r0
    2f44:	2f 9f       	mul	r18, r31
    2f46:	90 0d       	add	r25, r0
    2f48:	11 24       	eor	r1, r1
    2f4a:	68 0f       	add	r22, r24
    2f4c:	79 1f       	adc	r23, r25
    2f4e:	07 2e       	mov	r0, r23
    2f50:	00 0c       	add	r0, r0
    2f52:	88 0b       	sbc	r24, r24
    2f54:	99 0b       	sbc	r25, r25
    2f56:	0e 94 a8 1b 	call	0x3750	; 0x3750 <__floatsisf>
    2f5a:	69 83       	std	Y+1, r22	; 0x01
    2f5c:	7a 83       	std	Y+2, r23	; 0x02
    2f5e:	8b 83       	std	Y+3, r24	; 0x03
    2f60:	9c 83       	std	Y+4, r25	; 0x04
    2f62:	69 89       	ldd	r22, Y+17	; 0x11
    2f64:	7a 89       	ldd	r23, Y+18	; 0x12
    2f66:	8b 89       	ldd	r24, Y+19	; 0x13
    2f68:	9c 89       	ldd	r25, Y+20	; 0x14
    2f6a:	0e 94 f9 1a 	call	0x35f2	; 0x35f2 <cos>
    2f6e:	6d 83       	std	Y+5, r22	; 0x05
    2f70:	7e 83       	std	Y+6, r23	; 0x06
    2f72:	8f 83       	std	Y+7, r24	; 0x07
    2f74:	98 87       	std	Y+8, r25	; 0x08
    2f76:	9b 01       	movw	r18, r22
    2f78:	ac 01       	movw	r20, r24
    2f7a:	69 81       	ldd	r22, Y+1	; 0x01
    2f7c:	7a 81       	ldd	r23, Y+2	; 0x02
    2f7e:	8b 81       	ldd	r24, Y+3	; 0x03
    2f80:	9c 81       	ldd	r25, Y+4	; 0x04
    2f82:	0e 94 97 1c 	call	0x392e	; 0x392e <__mulsf3>
    2f86:	6b 01       	movw	r12, r22
    2f88:	7c 01       	movw	r14, r24
    2f8a:	fd 89       	ldd	r31, Y+21	; 0x15
    2f8c:	6f 2f       	mov	r22, r31
    2f8e:	70 e0       	ldi	r23, 0x00	; 0
    2f90:	80 e0       	ldi	r24, 0x00	; 0
    2f92:	90 e0       	ldi	r25, 0x00	; 0
    2f94:	0e 94 a8 1b 	call	0x3750	; 0x3750 <__floatsisf>
    2f98:	69 87       	std	Y+9, r22	; 0x09
    2f9a:	7a 87       	std	Y+10, r23	; 0x0a
    2f9c:	8b 87       	std	Y+11, r24	; 0x0b
    2f9e:	9c 87       	std	Y+12, r25	; 0x0c
    2fa0:	69 89       	ldd	r22, Y+17	; 0x11
    2fa2:	7a 89       	ldd	r23, Y+18	; 0x12
    2fa4:	8b 89       	ldd	r24, Y+19	; 0x13
    2fa6:	9c 89       	ldd	r25, Y+20	; 0x14
    2fa8:	0e 94 04 1d 	call	0x3a08	; 0x3a08 <sin>
    2fac:	6d 87       	std	Y+13, r22	; 0x0d
    2fae:	7e 87       	std	Y+14, r23	; 0x0e
    2fb0:	8f 87       	std	Y+15, r24	; 0x0f
    2fb2:	98 8b       	std	Y+16, r25	; 0x10
    2fb4:	9b 01       	movw	r18, r22
    2fb6:	ac 01       	movw	r20, r24
    2fb8:	69 85       	ldd	r22, Y+9	; 0x09
    2fba:	7a 85       	ldd	r23, Y+10	; 0x0a
    2fbc:	8b 85       	ldd	r24, Y+11	; 0x0b
    2fbe:	9c 85       	ldd	r25, Y+12	; 0x0c
    2fc0:	0e 94 97 1c 	call	0x392e	; 0x392e <__mulsf3>
    2fc4:	9b 01       	movw	r18, r22
    2fc6:	ac 01       	movw	r20, r24
    2fc8:	c7 01       	movw	r24, r14
    2fca:	b6 01       	movw	r22, r12
    2fcc:	0e 94 87 1a 	call	0x350e	; 0x350e <__subsf3>
    2fd0:	6b 01       	movw	r12, r22
    2fd2:	7c 01       	movw	r14, r24
    2fd4:	b3 01       	movw	r22, r6
    2fd6:	07 2c       	mov	r0, r7
    2fd8:	00 0c       	add	r0, r0
    2fda:	88 0b       	sbc	r24, r24
    2fdc:	99 0b       	sbc	r25, r25
    2fde:	0e 94 a8 1b 	call	0x3750	; 0x3750 <__floatsisf>
    2fe2:	a7 01       	movw	r20, r14
    2fe4:	96 01       	movw	r18, r12
    2fe6:	0e 94 88 1a 	call	0x3510	; 0x3510 <__addsf3>
    2fea:	0e 94 70 1b 	call	0x36e0	; 0x36e0 <__fixsfsi>
    2fee:	6b 01       	movw	r12, r22
    2ff0:	7c 01       	movw	r14, r24
    2ff2:	29 85       	ldd	r18, Y+9	; 0x09
    2ff4:	3a 85       	ldd	r19, Y+10	; 0x0a
    2ff6:	4b 85       	ldd	r20, Y+11	; 0x0b
    2ff8:	5c 85       	ldd	r21, Y+12	; 0x0c
    2ffa:	6d 81       	ldd	r22, Y+5	; 0x05
    2ffc:	7e 81       	ldd	r23, Y+6	; 0x06
    2ffe:	8f 81       	ldd	r24, Y+7	; 0x07
    3000:	98 85       	ldd	r25, Y+8	; 0x08
    3002:	0e 94 97 1c 	call	0x392e	; 0x392e <__mulsf3>
    3006:	6d 83       	std	Y+5, r22	; 0x05
    3008:	7e 83       	std	Y+6, r23	; 0x06
    300a:	8f 83       	std	Y+7, r24	; 0x07
    300c:	98 87       	std	Y+8, r25	; 0x08
    300e:	2d 85       	ldd	r18, Y+13	; 0x0d
    3010:	3e 85       	ldd	r19, Y+14	; 0x0e
    3012:	4f 85       	ldd	r20, Y+15	; 0x0f
    3014:	58 89       	ldd	r21, Y+16	; 0x10
    3016:	69 81       	ldd	r22, Y+1	; 0x01
    3018:	7a 81       	ldd	r23, Y+2	; 0x02
    301a:	8b 81       	ldd	r24, Y+3	; 0x03
    301c:	9c 81       	ldd	r25, Y+4	; 0x04
    301e:	0e 94 97 1c 	call	0x392e	; 0x392e <__mulsf3>
    3022:	9b 01       	movw	r18, r22
    3024:	ac 01       	movw	r20, r24
    3026:	6d 81       	ldd	r22, Y+5	; 0x05
    3028:	7e 81       	ldd	r23, Y+6	; 0x06
    302a:	8f 81       	ldd	r24, Y+7	; 0x07
    302c:	98 85       	ldd	r25, Y+8	; 0x08
    302e:	0e 94 88 1a 	call	0x3510	; 0x3510 <__addsf3>
    3032:	69 83       	std	Y+1, r22	; 0x01
    3034:	7a 83       	std	Y+2, r23	; 0x02
    3036:	8b 83       	std	Y+3, r24	; 0x03
    3038:	9c 83       	std	Y+4, r25	; 0x04
    303a:	b4 01       	movw	r22, r8
    303c:	09 2c       	mov	r0, r9
    303e:	00 0c       	add	r0, r0
    3040:	88 0b       	sbc	r24, r24
    3042:	99 0b       	sbc	r25, r25
    3044:	0e 94 a8 1b 	call	0x3750	; 0x3750 <__floatsisf>
    3048:	29 81       	ldd	r18, Y+1	; 0x01
    304a:	3a 81       	ldd	r19, Y+2	; 0x02
    304c:	4b 81       	ldd	r20, Y+3	; 0x03
    304e:	5c 81       	ldd	r21, Y+4	; 0x04
    3050:	0e 94 88 1a 	call	0x3510	; 0x3510 <__addsf3>
    3054:	0e 94 70 1b 	call	0x36e0	; 0x36e0 <__fixsfsi>
    3058:	8b 01       	movw	r16, r22
    305a:	0f 5f       	subi	r16, 0xFF	; 255
    305c:	1f 4f       	sbci	r17, 0xFF	; 255
    305e:	96 01       	movw	r18, r12
    3060:	2f 5f       	subi	r18, 0xFF	; 255
    3062:	3f 4f       	sbci	r19, 0xFF	; 255
    3064:	ab 01       	movw	r20, r22
    3066:	b6 01       	movw	r22, r12
    3068:	c5 01       	movw	r24, r10
    306a:	0e 94 3a 14 	call	0x2874	; 0x2874 <_ZN4UTFT5setXYEjjjj>
    306e:	27 e0       	ldi	r18, 0x07	; 7
    3070:	30 e0       	ldi	r19, 0x00	; 0
    3072:	22 19       	sub	r18, r2
    3074:	33 09       	sbc	r19, r3
    3076:	4b 8d       	ldd	r20, Y+27	; 0x1b
    3078:	84 2f       	mov	r24, r20
    307a:	90 e0       	ldi	r25, 0x00	; 0
    307c:	02 c0       	rjmp	.+4      	; 0x3082 <_ZN4UTFT10rotateCharEhiiii+0x24e>
    307e:	95 95       	asr	r25
    3080:	87 95       	ror	r24
    3082:	2a 95       	dec	r18
    3084:	e2 f7       	brpl	.-8      	; 0x307e <_ZN4UTFT10rotateCharEhiiii+0x24a>
    3086:	80 ff       	sbrs	r24, 0
    3088:	0c c0       	rjmp	.+24     	; 0x30a2 <_ZN4UTFT10rotateCharEhiiii+0x26e>
    308a:	d5 01       	movw	r26, r10
    308c:	6c 91       	ld	r22, X
    308e:	70 e0       	ldi	r23, 0x00	; 0
    3090:	76 2f       	mov	r23, r22
    3092:	66 27       	eor	r22, r22
    3094:	11 96       	adiw	r26, 0x01	; 1
    3096:	8c 91       	ld	r24, X
    3098:	68 2b       	or	r22, r24
    309a:	c5 01       	movw	r24, r10
    309c:	0e 94 72 15 	call	0x2ae4	; 0x2ae4 <_ZN4UTFT8setPixelEj>
    30a0:	0a c0       	rjmp	.+20     	; 0x30b6 <_ZN4UTFT10rotateCharEhiiii+0x282>
    30a2:	f5 01       	movw	r30, r10
    30a4:	62 81       	ldd	r22, Z+2	; 0x02
    30a6:	70 e0       	ldi	r23, 0x00	; 0
    30a8:	76 2f       	mov	r23, r22
    30aa:	66 27       	eor	r22, r22
    30ac:	83 81       	ldd	r24, Z+3	; 0x03
    30ae:	68 2b       	or	r22, r24
    30b0:	c5 01       	movw	r24, r10
    30b2:	0e 94 72 15 	call	0x2ae4	; 0x2ae4 <_ZN4UTFT8setPixelEj>
    30b6:	fa 8d       	ldd	r31, Y+26	; 0x1a
    30b8:	ff 5f       	subi	r31, 0xFF	; 255
    30ba:	fa 8f       	std	Y+26, r31	; 0x1a
    30bc:	2d cf       	rjmp	.-422    	; 0x2f18 <_ZN4UTFT10rotateCharEhiiii+0xe4>
    30be:	2f ef       	ldi	r18, 0xFF	; 255
    30c0:	42 1a       	sub	r4, r18
    30c2:	52 0a       	sbc	r5, r18
    30c4:	11 cf       	rjmp	.-478    	; 0x2ee8 <_ZN4UTFT10rotateCharEhiiii+0xb4>
    30c6:	48 8d       	ldd	r20, Y+24	; 0x18
    30c8:	59 8d       	ldd	r21, Y+25	; 0x19
    30ca:	48 0f       	add	r20, r24
    30cc:	51 1d       	adc	r21, r1
    30ce:	59 8f       	std	Y+25, r21	; 0x19
    30d0:	48 8f       	std	Y+24, r20	; 0x18
    30d2:	5d 89       	ldd	r21, Y+21	; 0x15
    30d4:	5f 5f       	subi	r21, 0xFF	; 255
    30d6:	5d 8b       	std	Y+21, r21	; 0x15
    30d8:	fe ce       	rjmp	.-516    	; 0x2ed6 <_ZN4UTFT10rotateCharEhiiii+0xa2>
    30da:	85 b3       	in	r24, 0x15	; 21
    30dc:	81 60       	ori	r24, 0x01	; 1
    30de:	85 bb       	out	0x15, r24	; 21
    30e0:	6b 96       	adiw	r28, 0x1b	; 27
    30e2:	0f b6       	in	r0, 0x3f	; 63
    30e4:	f8 94       	cli
    30e6:	de bf       	out	0x3e, r29	; 62
    30e8:	0f be       	out	0x3f, r0	; 63
    30ea:	cd bf       	out	0x3d, r28	; 61
    30ec:	df 91       	pop	r29
    30ee:	cf 91       	pop	r28
    30f0:	1f 91       	pop	r17
    30f2:	0f 91       	pop	r16
    30f4:	ff 90       	pop	r15
    30f6:	ef 90       	pop	r14
    30f8:	df 90       	pop	r13
    30fa:	cf 90       	pop	r12
    30fc:	bf 90       	pop	r11
    30fe:	af 90       	pop	r10
    3100:	9f 90       	pop	r9
    3102:	8f 90       	pop	r8
    3104:	7f 90       	pop	r7
    3106:	6f 90       	pop	r6
    3108:	5f 90       	pop	r5
    310a:	4f 90       	pop	r4
    310c:	3f 90       	pop	r3
    310e:	2f 90       	pop	r2
    3110:	08 95       	ret

00003112 <_ZN4UTFT5printEPKciii>:
    3112:	2f 92       	push	r2
    3114:	3f 92       	push	r3
    3116:	4f 92       	push	r4
    3118:	5f 92       	push	r5
    311a:	6f 92       	push	r6
    311c:	7f 92       	push	r7
    311e:	8f 92       	push	r8
    3120:	9f 92       	push	r9
    3122:	af 92       	push	r10
    3124:	bf 92       	push	r11
    3126:	cf 92       	push	r12
    3128:	df 92       	push	r13
    312a:	ef 92       	push	r14
    312c:	ff 92       	push	r15
    312e:	0f 93       	push	r16
    3130:	1f 93       	push	r17
    3132:	cf 93       	push	r28
    3134:	df 93       	push	r29
    3136:	ec 01       	movw	r28, r24
    3138:	fb 01       	movw	r30, r22
    313a:	5a 01       	movw	r10, r20
    313c:	29 01       	movw	r4, r18
    313e:	68 01       	movw	r12, r16
    3140:	db 01       	movw	r26, r22
    3142:	0d 90       	ld	r0, X+
    3144:	00 20       	and	r0, r0
    3146:	e9 f7       	brne	.-6      	; 0x3142 <_ZN4UTFT5printEPKciii+0x30>
    3148:	11 97       	sbiw	r26, 0x01	; 1
    314a:	a6 1b       	sub	r26, r22
    314c:	b7 0b       	sbc	r27, r23
    314e:	4d 01       	movw	r8, r26
    3150:	8c 81       	ldd	r24, Y+4	; 0x04
    3152:	81 11       	cpse	r24, r1
    3154:	3e c0       	rjmp	.+124    	; 0x31d2 <_ZN4UTFT5printEPKciii+0xc0>
    3156:	4f 30       	cpi	r20, 0x0F	; 15
    3158:	57 42       	sbci	r21, 0x27	; 39
    315a:	81 f4       	brne	.+32     	; 0x317c <_ZN4UTFT5printEPKciii+0x6a>
    315c:	4d 81       	ldd	r20, Y+5	; 0x05
    315e:	5e 81       	ldd	r21, Y+6	; 0x06
    3160:	6f 81       	ldd	r22, Y+7	; 0x07
    3162:	78 85       	ldd	r23, Y+8	; 0x08
    3164:	2f 85       	ldd	r18, Y+15	; 0x0f
    3166:	2a 9f       	mul	r18, r26
    3168:	c0 01       	movw	r24, r0
    316a:	2b 9f       	mul	r18, r27
    316c:	90 0d       	add	r25, r0
    316e:	11 24       	eor	r1, r1
    3170:	48 1b       	sub	r20, r24
    3172:	59 0b       	sbc	r21, r25
    3174:	5a 01       	movw	r10, r20
    3176:	1f ef       	ldi	r17, 0xFF	; 255
    3178:	a1 1a       	sub	r10, r17
    317a:	b1 0a       	sbc	r11, r17
    317c:	2e e0       	ldi	r18, 0x0E	; 14
    317e:	a2 16       	cp	r10, r18
    3180:	27 e2       	ldi	r18, 0x27	; 39
    3182:	b2 06       	cpc	r11, r18
    3184:	09 f0       	breq	.+2      	; 0x3188 <_ZN4UTFT5printEPKciii+0x76>
    3186:	61 c0       	rjmp	.+194    	; 0x324a <_ZN4UTFT5printEPKciii+0x138>
    3188:	4d 81       	ldd	r20, Y+5	; 0x05
    318a:	5e 81       	ldd	r21, Y+6	; 0x06
    318c:	6f 81       	ldd	r22, Y+7	; 0x07
    318e:	78 85       	ldd	r23, Y+8	; 0x08
    3190:	4f 5f       	subi	r20, 0xFF	; 255
    3192:	5f 4f       	sbci	r21, 0xFF	; 255
    3194:	6f 4f       	sbci	r22, 0xFF	; 255
    3196:	7f 4f       	sbci	r23, 0xFF	; 255
    3198:	2f 85       	ldd	r18, Y+15	; 0x0f
    319a:	2a 9f       	mul	r18, r26
    319c:	c0 01       	movw	r24, r0
    319e:	2b 9f       	mul	r18, r27
    31a0:	90 0d       	add	r25, r0
    31a2:	11 24       	eor	r1, r1
    31a4:	09 2e       	mov	r0, r25
    31a6:	00 0c       	add	r0, r0
    31a8:	aa 0b       	sbc	r26, r26
    31aa:	bb 0b       	sbc	r27, r27
    31ac:	8a 01       	movw	r16, r20
    31ae:	9b 01       	movw	r18, r22
    31b0:	08 1b       	sub	r16, r24
    31b2:	19 0b       	sbc	r17, r25
    31b4:	2a 0b       	sbc	r18, r26
    31b6:	3b 0b       	sbc	r19, r27
    31b8:	b9 01       	movw	r22, r18
    31ba:	a8 01       	movw	r20, r16
    31bc:	22 f4       	brpl	.+8      	; 0x31c6 <_ZN4UTFT5printEPKciii+0xb4>
    31be:	4f 5f       	subi	r20, 0xFF	; 255
    31c0:	5f 4f       	sbci	r21, 0xFF	; 255
    31c2:	6f 4f       	sbci	r22, 0xFF	; 255
    31c4:	7f 4f       	sbci	r23, 0xFF	; 255
    31c6:	75 95       	asr	r23
    31c8:	67 95       	ror	r22
    31ca:	57 95       	ror	r21
    31cc:	47 95       	ror	r20
    31ce:	5a 01       	movw	r10, r20
    31d0:	3c c0       	rjmp	.+120    	; 0x324a <_ZN4UTFT5printEPKciii+0x138>
    31d2:	4f 30       	cpi	r20, 0x0F	; 15
    31d4:	57 42       	sbci	r21, 0x27	; 39
    31d6:	81 f4       	brne	.+32     	; 0x31f8 <_ZN4UTFT5printEPKciii+0xe6>
    31d8:	49 85       	ldd	r20, Y+9	; 0x09
    31da:	5a 85       	ldd	r21, Y+10	; 0x0a
    31dc:	6b 85       	ldd	r22, Y+11	; 0x0b
    31de:	7c 85       	ldd	r23, Y+12	; 0x0c
    31e0:	2f 85       	ldd	r18, Y+15	; 0x0f
    31e2:	2a 9f       	mul	r18, r26
    31e4:	c0 01       	movw	r24, r0
    31e6:	2b 9f       	mul	r18, r27
    31e8:	90 0d       	add	r25, r0
    31ea:	11 24       	eor	r1, r1
    31ec:	48 1b       	sub	r20, r24
    31ee:	59 0b       	sbc	r21, r25
    31f0:	5a 01       	movw	r10, r20
    31f2:	2f ef       	ldi	r18, 0xFF	; 255
    31f4:	a2 1a       	sub	r10, r18
    31f6:	b2 0a       	sbc	r11, r18
    31f8:	3e e0       	ldi	r19, 0x0E	; 14
    31fa:	a3 16       	cp	r10, r19
    31fc:	37 e2       	ldi	r19, 0x27	; 39
    31fe:	b3 06       	cpc	r11, r19
    3200:	21 f5       	brne	.+72     	; 0x324a <_ZN4UTFT5printEPKciii+0x138>
    3202:	49 85       	ldd	r20, Y+9	; 0x09
    3204:	5a 85       	ldd	r21, Y+10	; 0x0a
    3206:	6b 85       	ldd	r22, Y+11	; 0x0b
    3208:	7c 85       	ldd	r23, Y+12	; 0x0c
    320a:	4f 5f       	subi	r20, 0xFF	; 255
    320c:	5f 4f       	sbci	r21, 0xFF	; 255
    320e:	6f 4f       	sbci	r22, 0xFF	; 255
    3210:	7f 4f       	sbci	r23, 0xFF	; 255
    3212:	2f 85       	ldd	r18, Y+15	; 0x0f
    3214:	2a 9f       	mul	r18, r26
    3216:	c0 01       	movw	r24, r0
    3218:	2b 9f       	mul	r18, r27
    321a:	90 0d       	add	r25, r0
    321c:	11 24       	eor	r1, r1
    321e:	09 2e       	mov	r0, r25
    3220:	00 0c       	add	r0, r0
    3222:	aa 0b       	sbc	r26, r26
    3224:	bb 0b       	sbc	r27, r27
    3226:	8a 01       	movw	r16, r20
    3228:	9b 01       	movw	r18, r22
    322a:	08 1b       	sub	r16, r24
    322c:	19 0b       	sbc	r17, r25
    322e:	2a 0b       	sbc	r18, r26
    3230:	3b 0b       	sbc	r19, r27
    3232:	b9 01       	movw	r22, r18
    3234:	a8 01       	movw	r20, r16
    3236:	22 f4       	brpl	.+8      	; 0x3240 <_ZN4UTFT5printEPKciii+0x12e>
    3238:	4f 5f       	subi	r20, 0xFF	; 255
    323a:	5f 4f       	sbci	r21, 0xFF	; 255
    323c:	6f 4f       	sbci	r22, 0xFF	; 255
    323e:	7f 4f       	sbci	r23, 0xFF	; 255
    3240:	75 95       	asr	r23
    3242:	67 95       	ror	r22
    3244:	57 95       	ror	r21
    3246:	47 95       	ror	r20
    3248:	5a 01       	movw	r10, r20
    324a:	61 2c       	mov	r6, r1
    324c:	71 2c       	mov	r7, r1
    324e:	68 14       	cp	r6, r8
    3250:	79 04       	cpc	r7, r9
    3252:	3c f5       	brge	.+78     	; 0x32a2 <_ZN4UTFT5printEPKciii+0x190>
    3254:	c1 14       	cp	r12, r1
    3256:	d1 04       	cpc	r13, r1
    3258:	99 f4       	brne	.+38     	; 0x3280 <_ZN4UTFT5printEPKciii+0x16e>
    325a:	8f 85       	ldd	r24, Y+15	; 0x0f
    325c:	86 9d       	mul	r24, r6
    325e:	a0 01       	movw	r20, r0
    3260:	87 9d       	mul	r24, r7
    3262:	50 0d       	add	r21, r0
    3264:	11 24       	eor	r1, r1
    3266:	4a 0d       	add	r20, r10
    3268:	5b 1d       	adc	r21, r11
    326a:	1f 01       	movw	r2, r30
    326c:	1f ef       	ldi	r17, 0xFF	; 255
    326e:	21 1a       	sub	r2, r17
    3270:	31 0a       	sbc	r3, r17
    3272:	60 81       	ld	r22, Z
    3274:	92 01       	movw	r18, r4
    3276:	ce 01       	movw	r24, r28
    3278:	0e 94 21 16 	call	0x2c42	; 0x2c42 <_ZN4UTFT9printCharEhii>
    327c:	f1 01       	movw	r30, r2
    327e:	0d c0       	rjmp	.+26     	; 0x329a <_ZN4UTFT5printEPKciii+0x188>
    3280:	1f 01       	movw	r2, r30
    3282:	2f ef       	ldi	r18, 0xFF	; 255
    3284:	22 1a       	sub	r2, r18
    3286:	32 0a       	sbc	r3, r18
    3288:	60 81       	ld	r22, Z
    328a:	76 01       	movw	r14, r12
    328c:	83 01       	movw	r16, r6
    328e:	92 01       	movw	r18, r4
    3290:	a5 01       	movw	r20, r10
    3292:	ce 01       	movw	r24, r28
    3294:	0e 94 1a 17 	call	0x2e34	; 0x2e34 <_ZN4UTFT10rotateCharEhiiii>
    3298:	f1 01       	movw	r30, r2
    329a:	3f ef       	ldi	r19, 0xFF	; 255
    329c:	63 1a       	sub	r6, r19
    329e:	73 0a       	sbc	r7, r19
    32a0:	d6 cf       	rjmp	.-84     	; 0x324e <_ZN4UTFT5printEPKciii+0x13c>
    32a2:	df 91       	pop	r29
    32a4:	cf 91       	pop	r28
    32a6:	1f 91       	pop	r17
    32a8:	0f 91       	pop	r16
    32aa:	ff 90       	pop	r15
    32ac:	ef 90       	pop	r14
    32ae:	df 90       	pop	r13
    32b0:	cf 90       	pop	r12
    32b2:	bf 90       	pop	r11
    32b4:	af 90       	pop	r10
    32b6:	9f 90       	pop	r9
    32b8:	8f 90       	pop	r8
    32ba:	7f 90       	pop	r7
    32bc:	6f 90       	pop	r6
    32be:	5f 90       	pop	r5
    32c0:	4f 90       	pop	r4
    32c2:	3f 90       	pop	r3
    32c4:	2f 90       	pop	r2
    32c6:	08 95       	ret

000032c8 <_ZN4UTFT9printNumIEliiic>:
    32c8:	2f 92       	push	r2
    32ca:	3f 92       	push	r3
    32cc:	4f 92       	push	r4
    32ce:	5f 92       	push	r5
    32d0:	6f 92       	push	r6
    32d2:	7f 92       	push	r7
    32d4:	8f 92       	push	r8
    32d6:	9f 92       	push	r9
    32d8:	af 92       	push	r10
    32da:	bf 92       	push	r11
    32dc:	cf 92       	push	r12
    32de:	df 92       	push	r13
    32e0:	ef 92       	push	r14
    32e2:	ff 92       	push	r15
    32e4:	0f 93       	push	r16
    32e6:	1f 93       	push	r17
    32e8:	cf 93       	push	r28
    32ea:	df 93       	push	r29
    32ec:	cd b7       	in	r28, 0x3d	; 61
    32ee:	de b7       	in	r29, 0x3e	; 62
    32f0:	e8 97       	sbiw	r28, 0x38	; 56
    32f2:	0f b6       	in	r0, 0x3f	; 63
    32f4:	f8 94       	cli
    32f6:	de bf       	out	0x3e, r29	; 62
    32f8:	0f be       	out	0x3f, r0	; 63
    32fa:	cd bf       	out	0x3d, r28	; 61
    32fc:	1c 01       	movw	r2, r24
    32fe:	4a 01       	movw	r8, r20
    3300:	5b 01       	movw	r10, r22
    3302:	3e ab       	std	Y+54, r19	; 0x36
    3304:	2d ab       	std	Y+53, r18	; 0x35
    3306:	18 af       	std	Y+56, r17	; 0x38
    3308:	0f ab       	std	Y+55, r16	; 0x37
    330a:	41 15       	cp	r20, r1
    330c:	51 05       	cpc	r21, r1
    330e:	61 05       	cpc	r22, r1
    3310:	71 05       	cpc	r23, r1
    3312:	49 f5       	brne	.+82     	; 0x3366 <_ZN4UTFT9printNumIEliiic+0x9e>
    3314:	e1 14       	cp	r14, r1
    3316:	f1 04       	cpc	r15, r1
    3318:	11 f1       	breq	.+68     	; 0x335e <_ZN4UTFT9printNumIEliiic+0x96>
    331a:	80 e0       	ldi	r24, 0x00	; 0
    331c:	90 e0       	ldi	r25, 0x00	; 0
    331e:	97 01       	movw	r18, r14
    3320:	21 50       	subi	r18, 0x01	; 1
    3322:	31 09       	sbc	r19, r1
    3324:	82 17       	cp	r24, r18
    3326:	93 07       	cpc	r25, r19
    3328:	4c f4       	brge	.+18     	; 0x333c <_ZN4UTFT9printNumIEliiic+0x74>
    332a:	ea e1       	ldi	r30, 0x1A	; 26
    332c:	f0 e0       	ldi	r31, 0x00	; 0
    332e:	ec 0f       	add	r30, r28
    3330:	fd 1f       	adc	r31, r29
    3332:	e8 0f       	add	r30, r24
    3334:	f9 1f       	adc	r31, r25
    3336:	c0 82       	st	Z, r12
    3338:	01 96       	adiw	r24, 0x01	; 1
    333a:	f1 cf       	rjmp	.-30     	; 0x331e <_ZN4UTFT9printNumIEliiic+0x56>
    333c:	ea e1       	ldi	r30, 0x1A	; 26
    333e:	f0 e0       	ldi	r31, 0x00	; 0
    3340:	ec 0f       	add	r30, r28
    3342:	fd 1f       	adc	r31, r29
    3344:	e8 0f       	add	r30, r24
    3346:	f9 1f       	adc	r31, r25
    3348:	20 e3       	ldi	r18, 0x30	; 48
    334a:	20 83       	st	Z, r18
    334c:	01 96       	adiw	r24, 0x01	; 1
    334e:	ea e1       	ldi	r30, 0x1A	; 26
    3350:	f0 e0       	ldi	r31, 0x00	; 0
    3352:	ec 0f       	add	r30, r28
    3354:	fd 1f       	adc	r31, r29
    3356:	e8 0f       	add	r30, r24
    3358:	f9 1f       	adc	r31, r25
    335a:	10 82       	st	Z, r1
    335c:	98 c0       	rjmp	.+304    	; 0x348e <_ZN4UTFT9printNumIEliiic+0x1c6>
    335e:	80 e3       	ldi	r24, 0x30	; 48
    3360:	8a 8f       	std	Y+26, r24	; 0x1a
    3362:	1b 8e       	std	Y+27, r1	; 0x1b
    3364:	94 c0       	rjmp	.+296    	; 0x348e <_ZN4UTFT9printNumIEliiic+0x1c6>
    3366:	77 23       	and	r23, r23
    3368:	5c f4       	brge	.+22     	; 0x3380 <_ZN4UTFT9printNumIEliiic+0xb8>
    336a:	b0 94       	com	r11
    336c:	a0 94       	com	r10
    336e:	90 94       	com	r9
    3370:	80 94       	com	r8
    3372:	81 1c       	adc	r8, r1
    3374:	91 1c       	adc	r9, r1
    3376:	a1 1c       	adc	r10, r1
    3378:	b1 1c       	adc	r11, r1
    337a:	dd 24       	eor	r13, r13
    337c:	d3 94       	inc	r13
    337e:	01 c0       	rjmp	.+2      	; 0x3382 <_ZN4UTFT9printNumIEliiic+0xba>
    3380:	d1 2c       	mov	r13, r1
    3382:	00 e0       	ldi	r16, 0x00	; 0
    3384:	10 e0       	ldi	r17, 0x00	; 0
    3386:	18 14       	cp	r1, r8
    3388:	19 04       	cpc	r1, r9
    338a:	1a 04       	cpc	r1, r10
    338c:	1b 04       	cpc	r1, r11
    338e:	3c f5       	brge	.+78     	; 0x33de <_ZN4UTFT9printNumIEliiic+0x116>
    3390:	0f 2e       	mov	r0, r31
    3392:	fa e0       	ldi	r31, 0x0A	; 10
    3394:	4f 2e       	mov	r4, r31
    3396:	51 2c       	mov	r5, r1
    3398:	61 2c       	mov	r6, r1
    339a:	71 2c       	mov	r7, r1
    339c:	f0 2d       	mov	r31, r0
    339e:	c5 01       	movw	r24, r10
    33a0:	b4 01       	movw	r22, r8
    33a2:	a3 01       	movw	r20, r6
    33a4:	92 01       	movw	r18, r4
    33a6:	0e 94 9b 1d 	call	0x3b36	; 0x3b36 <__divmodsi4>
    33aa:	e1 e0       	ldi	r30, 0x01	; 1
    33ac:	f0 e0       	ldi	r31, 0x00	; 0
    33ae:	ec 0f       	add	r30, r28
    33b0:	fd 1f       	adc	r31, r29
    33b2:	e0 0f       	add	r30, r16
    33b4:	f1 1f       	adc	r31, r17
    33b6:	20 e3       	ldi	r18, 0x30	; 48
    33b8:	26 0f       	add	r18, r22
    33ba:	20 83       	st	Z, r18
    33bc:	0f 5f       	subi	r16, 0xFF	; 255
    33be:	1f 4f       	sbci	r17, 0xFF	; 255
    33c0:	a5 01       	movw	r20, r10
    33c2:	94 01       	movw	r18, r8
    33c4:	26 1b       	sub	r18, r22
    33c6:	37 0b       	sbc	r19, r23
    33c8:	48 0b       	sbc	r20, r24
    33ca:	59 0b       	sbc	r21, r25
    33cc:	ca 01       	movw	r24, r20
    33ce:	b9 01       	movw	r22, r18
    33d0:	a3 01       	movw	r20, r6
    33d2:	92 01       	movw	r18, r4
    33d4:	0e 94 9b 1d 	call	0x3b36	; 0x3b36 <__divmodsi4>
    33d8:	49 01       	movw	r8, r18
    33da:	5a 01       	movw	r10, r20
    33dc:	d4 cf       	rjmp	.-88     	; 0x3386 <_ZN4UTFT9printNumIEliiic+0xbe>
    33de:	e1 e0       	ldi	r30, 0x01	; 1
    33e0:	f0 e0       	ldi	r31, 0x00	; 0
    33e2:	ec 0f       	add	r30, r28
    33e4:	fd 1f       	adc	r31, r29
    33e6:	e0 0f       	add	r30, r16
    33e8:	f1 1f       	adc	r31, r17
    33ea:	10 82       	st	Z, r1
    33ec:	dd 20       	and	r13, r13
    33ee:	11 f0       	breq	.+4      	; 0x33f4 <_ZN4UTFT9printNumIEliiic+0x12c>
    33f0:	8d e2       	ldi	r24, 0x2D	; 45
    33f2:	8a 8f       	std	Y+26, r24	; 0x1a
    33f4:	2d 2d       	mov	r18, r13
    33f6:	30 e0       	ldi	r19, 0x00	; 0
    33f8:	b8 01       	movw	r22, r16
    33fa:	62 0f       	add	r22, r18
    33fc:	73 1f       	adc	r23, r19
    33fe:	6e 15       	cp	r22, r14
    3400:	7f 05       	cpc	r23, r15
    3402:	d4 f4       	brge	.+52     	; 0x3438 <_ZN4UTFT9printNumIEliiic+0x170>
    3404:	80 e0       	ldi	r24, 0x00	; 0
    3406:	90 e0       	ldi	r25, 0x00	; 0
    3408:	40 e0       	ldi	r20, 0x00	; 0
    340a:	50 e0       	ldi	r21, 0x00	; 0
    340c:	f7 01       	movw	r30, r14
    340e:	e0 1b       	sub	r30, r16
    3410:	f1 0b       	sbc	r31, r17
    3412:	e2 1b       	sub	r30, r18
    3414:	f3 0b       	sbc	r31, r19
    3416:	8e 17       	cp	r24, r30
    3418:	9f 07       	cpc	r25, r31
    341a:	84 f4       	brge	.+32     	; 0x343c <_ZN4UTFT9printNumIEliiic+0x174>
    341c:	fc 01       	movw	r30, r24
    341e:	e2 0f       	add	r30, r18
    3420:	f3 1f       	adc	r31, r19
    3422:	aa e1       	ldi	r26, 0x1A	; 26
    3424:	b0 e0       	ldi	r27, 0x00	; 0
    3426:	ac 0f       	add	r26, r28
    3428:	bd 1f       	adc	r27, r29
    342a:	ea 0f       	add	r30, r26
    342c:	fb 1f       	adc	r31, r27
    342e:	c0 82       	st	Z, r12
    3430:	4f 5f       	subi	r20, 0xFF	; 255
    3432:	5f 4f       	sbci	r21, 0xFF	; 255
    3434:	01 96       	adiw	r24, 0x01	; 1
    3436:	ea cf       	rjmp	.-44     	; 0x340c <_ZN4UTFT9printNumIEliiic+0x144>
    3438:	40 e0       	ldi	r20, 0x00	; 0
    343a:	50 e0       	ldi	r21, 0x00	; 0
    343c:	a0 e0       	ldi	r26, 0x00	; 0
    343e:	b0 e0       	ldi	r27, 0x00	; 0
    3440:	a0 17       	cp	r26, r16
    3442:	b1 07       	cpc	r27, r17
    3444:	dc f4       	brge	.+54     	; 0x347c <_ZN4UTFT9printNumIEliiic+0x1b4>
    3446:	fd 01       	movw	r30, r26
    3448:	e2 0f       	add	r30, r18
    344a:	f3 1f       	adc	r31, r19
    344c:	6f 01       	movw	r12, r30
    344e:	c4 0e       	add	r12, r20
    3450:	d5 1e       	adc	r13, r21
    3452:	c8 01       	movw	r24, r16
    3454:	8a 1b       	sub	r24, r26
    3456:	9b 0b       	sbc	r25, r27
    3458:	01 97       	sbiw	r24, 0x01	; 1
    345a:	e1 e0       	ldi	r30, 0x01	; 1
    345c:	f0 e0       	ldi	r31, 0x00	; 0
    345e:	ec 0f       	add	r30, r28
    3460:	fd 1f       	adc	r31, r29
    3462:	8e 0f       	add	r24, r30
    3464:	9f 1f       	adc	r25, r31
    3466:	fc 01       	movw	r30, r24
    3468:	80 81       	ld	r24, Z
    346a:	ea e1       	ldi	r30, 0x1A	; 26
    346c:	f0 e0       	ldi	r31, 0x00	; 0
    346e:	ec 0f       	add	r30, r28
    3470:	fd 1f       	adc	r31, r29
    3472:	ec 0d       	add	r30, r12
    3474:	fd 1d       	adc	r31, r13
    3476:	80 83       	st	Z, r24
    3478:	11 96       	adiw	r26, 0x01	; 1
    347a:	e2 cf       	rjmp	.-60     	; 0x3440 <_ZN4UTFT9printNumIEliiic+0x178>
    347c:	46 0f       	add	r20, r22
    347e:	57 1f       	adc	r21, r23
    3480:	ea e1       	ldi	r30, 0x1A	; 26
    3482:	f0 e0       	ldi	r31, 0x00	; 0
    3484:	ec 0f       	add	r30, r28
    3486:	fd 1f       	adc	r31, r29
    3488:	e4 0f       	add	r30, r20
    348a:	f5 1f       	adc	r31, r21
    348c:	10 82       	st	Z, r1
    348e:	00 e0       	ldi	r16, 0x00	; 0
    3490:	10 e0       	ldi	r17, 0x00	; 0
    3492:	2f a9       	ldd	r18, Y+55	; 0x37
    3494:	38 ad       	ldd	r19, Y+56	; 0x38
    3496:	4d a9       	ldd	r20, Y+53	; 0x35
    3498:	5e a9       	ldd	r21, Y+54	; 0x36
    349a:	be 01       	movw	r22, r28
    349c:	66 5e       	subi	r22, 0xE6	; 230
    349e:	7f 4f       	sbci	r23, 0xFF	; 255
    34a0:	c1 01       	movw	r24, r2
    34a2:	0e 94 89 18 	call	0x3112	; 0x3112 <_ZN4UTFT5printEPKciii>
    34a6:	e8 96       	adiw	r28, 0x38	; 56
    34a8:	0f b6       	in	r0, 0x3f	; 63
    34aa:	f8 94       	cli
    34ac:	de bf       	out	0x3e, r29	; 62
    34ae:	0f be       	out	0x3f, r0	; 63
    34b0:	cd bf       	out	0x3d, r28	; 61
    34b2:	df 91       	pop	r29
    34b4:	cf 91       	pop	r28
    34b6:	1f 91       	pop	r17
    34b8:	0f 91       	pop	r16
    34ba:	ff 90       	pop	r15
    34bc:	ef 90       	pop	r14
    34be:	df 90       	pop	r13
    34c0:	cf 90       	pop	r12
    34c2:	bf 90       	pop	r11
    34c4:	af 90       	pop	r10
    34c6:	9f 90       	pop	r9
    34c8:	8f 90       	pop	r8
    34ca:	7f 90       	pop	r7
    34cc:	6f 90       	pop	r6
    34ce:	5f 90       	pop	r5
    34d0:	4f 90       	pop	r4
    34d2:	3f 90       	pop	r3
    34d4:	2f 90       	pop	r2
    34d6:	08 95       	ret

000034d8 <_ZN4UTFT7setFontEPKh>:

void UTFT::setFont(const uint8_t* font)
{
    34d8:	dc 01       	movw	r26, r24
	cfont.font=font;
    34da:	1e 96       	adiw	r26, 0x0e	; 14
    34dc:	7c 93       	st	X, r23
    34de:	6e 93       	st	-X, r22
    34e0:	1d 97       	sbiw	r26, 0x0d	; 13
	cfont.x_size=fontbyte(0);
    34e2:	fb 01       	movw	r30, r22
    34e4:	84 91       	lpm	r24, Z
    34e6:	1f 96       	adiw	r26, 0x0f	; 15
    34e8:	8c 93       	st	X, r24
    34ea:	1f 97       	sbiw	r26, 0x0f	; 15
	cfont.y_size=fontbyte(1);
    34ec:	31 96       	adiw	r30, 0x01	; 1
    34ee:	e4 91       	lpm	r30, Z
    34f0:	50 96       	adiw	r26, 0x10	; 16
    34f2:	ec 93       	st	X, r30
    34f4:	50 97       	sbiw	r26, 0x10	; 16
	cfont.offset=fontbyte(2);
    34f6:	fb 01       	movw	r30, r22
    34f8:	32 96       	adiw	r30, 0x02	; 2
    34fa:	e4 91       	lpm	r30, Z
    34fc:	51 96       	adiw	r26, 0x11	; 17
    34fe:	ec 93       	st	X, r30
    3500:	51 97       	sbiw	r26, 0x11	; 17
	cfont.numchars=fontbyte(3);
    3502:	fb 01       	movw	r30, r22
    3504:	33 96       	adiw	r30, 0x03	; 3
    3506:	64 91       	lpm	r22, Z
    3508:	52 96       	adiw	r26, 0x12	; 18
    350a:	6c 93       	st	X, r22
    350c:	08 95       	ret

0000350e <__subsf3>:
    350e:	50 58       	subi	r21, 0x80	; 128

00003510 <__addsf3>:
    3510:	bb 27       	eor	r27, r27
    3512:	aa 27       	eor	r26, r26
    3514:	0e 94 9f 1a 	call	0x353e	; 0x353e <__addsf3x>
    3518:	0c 94 49 1c 	jmp	0x3892	; 0x3892 <__fp_round>
    351c:	0e 94 10 1c 	call	0x3820	; 0x3820 <__fp_pscA>
    3520:	38 f0       	brcs	.+14     	; 0x3530 <__addsf3+0x20>
    3522:	0e 94 17 1c 	call	0x382e	; 0x382e <__fp_pscB>
    3526:	20 f0       	brcs	.+8      	; 0x3530 <__addsf3+0x20>
    3528:	39 f4       	brne	.+14     	; 0x3538 <__addsf3+0x28>
    352a:	9f 3f       	cpi	r25, 0xFF	; 255
    352c:	19 f4       	brne	.+6      	; 0x3534 <__addsf3+0x24>
    352e:	26 f4       	brtc	.+8      	; 0x3538 <__addsf3+0x28>
    3530:	0c 94 0d 1c 	jmp	0x381a	; 0x381a <__fp_nan>
    3534:	0e f4       	brtc	.+2      	; 0x3538 <__addsf3+0x28>
    3536:	e0 95       	com	r30
    3538:	e7 fb       	bst	r30, 7
    353a:	0c 94 07 1c 	jmp	0x380e	; 0x380e <__fp_inf>

0000353e <__addsf3x>:
    353e:	e9 2f       	mov	r30, r25
    3540:	0e 94 6e 1c 	call	0x38dc	; 0x38dc <__fp_split3>
    3544:	58 f3       	brcs	.-42     	; 0x351c <__addsf3+0xc>
    3546:	ba 17       	cp	r27, r26
    3548:	62 07       	cpc	r22, r18
    354a:	73 07       	cpc	r23, r19
    354c:	84 07       	cpc	r24, r20
    354e:	95 07       	cpc	r25, r21
    3550:	20 f0       	brcs	.+8      	; 0x355a <__addsf3x+0x1c>
    3552:	79 f4       	brne	.+30     	; 0x3572 <__addsf3x+0x34>
    3554:	a6 f5       	brtc	.+104    	; 0x35be <__addsf3x+0x80>
    3556:	0c 94 90 1c 	jmp	0x3920	; 0x3920 <__fp_zero>
    355a:	0e f4       	brtc	.+2      	; 0x355e <__addsf3x+0x20>
    355c:	e0 95       	com	r30
    355e:	0b 2e       	mov	r0, r27
    3560:	ba 2f       	mov	r27, r26
    3562:	a0 2d       	mov	r26, r0
    3564:	0b 01       	movw	r0, r22
    3566:	b9 01       	movw	r22, r18
    3568:	90 01       	movw	r18, r0
    356a:	0c 01       	movw	r0, r24
    356c:	ca 01       	movw	r24, r20
    356e:	a0 01       	movw	r20, r0
    3570:	11 24       	eor	r1, r1
    3572:	ff 27       	eor	r31, r31
    3574:	59 1b       	sub	r21, r25
    3576:	99 f0       	breq	.+38     	; 0x359e <__addsf3x+0x60>
    3578:	59 3f       	cpi	r21, 0xF9	; 249
    357a:	50 f4       	brcc	.+20     	; 0x3590 <__addsf3x+0x52>
    357c:	50 3e       	cpi	r21, 0xE0	; 224
    357e:	68 f1       	brcs	.+90     	; 0x35da <__addsf3x+0x9c>
    3580:	1a 16       	cp	r1, r26
    3582:	f0 40       	sbci	r31, 0x00	; 0
    3584:	a2 2f       	mov	r26, r18
    3586:	23 2f       	mov	r18, r19
    3588:	34 2f       	mov	r19, r20
    358a:	44 27       	eor	r20, r20
    358c:	58 5f       	subi	r21, 0xF8	; 248
    358e:	f3 cf       	rjmp	.-26     	; 0x3576 <__addsf3x+0x38>
    3590:	46 95       	lsr	r20
    3592:	37 95       	ror	r19
    3594:	27 95       	ror	r18
    3596:	a7 95       	ror	r26
    3598:	f0 40       	sbci	r31, 0x00	; 0
    359a:	53 95       	inc	r21
    359c:	c9 f7       	brne	.-14     	; 0x3590 <__addsf3x+0x52>
    359e:	7e f4       	brtc	.+30     	; 0x35be <__addsf3x+0x80>
    35a0:	1f 16       	cp	r1, r31
    35a2:	ba 0b       	sbc	r27, r26
    35a4:	62 0b       	sbc	r22, r18
    35a6:	73 0b       	sbc	r23, r19
    35a8:	84 0b       	sbc	r24, r20
    35aa:	ba f0       	brmi	.+46     	; 0x35da <__addsf3x+0x9c>
    35ac:	91 50       	subi	r25, 0x01	; 1
    35ae:	a1 f0       	breq	.+40     	; 0x35d8 <__addsf3x+0x9a>
    35b0:	ff 0f       	add	r31, r31
    35b2:	bb 1f       	adc	r27, r27
    35b4:	66 1f       	adc	r22, r22
    35b6:	77 1f       	adc	r23, r23
    35b8:	88 1f       	adc	r24, r24
    35ba:	c2 f7       	brpl	.-16     	; 0x35ac <__addsf3x+0x6e>
    35bc:	0e c0       	rjmp	.+28     	; 0x35da <__addsf3x+0x9c>
    35be:	ba 0f       	add	r27, r26
    35c0:	62 1f       	adc	r22, r18
    35c2:	73 1f       	adc	r23, r19
    35c4:	84 1f       	adc	r24, r20
    35c6:	48 f4       	brcc	.+18     	; 0x35da <__addsf3x+0x9c>
    35c8:	87 95       	ror	r24
    35ca:	77 95       	ror	r23
    35cc:	67 95       	ror	r22
    35ce:	b7 95       	ror	r27
    35d0:	f7 95       	ror	r31
    35d2:	9e 3f       	cpi	r25, 0xFE	; 254
    35d4:	08 f0       	brcs	.+2      	; 0x35d8 <__addsf3x+0x9a>
    35d6:	b0 cf       	rjmp	.-160    	; 0x3538 <__addsf3+0x28>
    35d8:	93 95       	inc	r25
    35da:	88 0f       	add	r24, r24
    35dc:	08 f0       	brcs	.+2      	; 0x35e0 <__addsf3x+0xa2>
    35de:	99 27       	eor	r25, r25
    35e0:	ee 0f       	add	r30, r30
    35e2:	97 95       	ror	r25
    35e4:	87 95       	ror	r24
    35e6:	08 95       	ret

000035e8 <__cmpsf2>:
    35e8:	0e 94 e3 1b 	call	0x37c6	; 0x37c6 <__fp_cmp>
    35ec:	08 f4       	brcc	.+2      	; 0x35f0 <__cmpsf2+0x8>
    35ee:	81 e0       	ldi	r24, 0x01	; 1
    35f0:	08 95       	ret

000035f2 <cos>:
    35f2:	0e 94 20 1c 	call	0x3840	; 0x3840 <__fp_rempio2>
    35f6:	e3 95       	inc	r30
    35f8:	0c 94 5a 1c 	jmp	0x38b4	; 0x38b4 <__fp_sinus>

000035fc <__divsf3>:
    35fc:	0e 94 12 1b 	call	0x3624	; 0x3624 <__divsf3x>
    3600:	0c 94 49 1c 	jmp	0x3892	; 0x3892 <__fp_round>
    3604:	0e 94 17 1c 	call	0x382e	; 0x382e <__fp_pscB>
    3608:	58 f0       	brcs	.+22     	; 0x3620 <__divsf3+0x24>
    360a:	0e 94 10 1c 	call	0x3820	; 0x3820 <__fp_pscA>
    360e:	40 f0       	brcs	.+16     	; 0x3620 <__divsf3+0x24>
    3610:	29 f4       	brne	.+10     	; 0x361c <__divsf3+0x20>
    3612:	5f 3f       	cpi	r21, 0xFF	; 255
    3614:	29 f0       	breq	.+10     	; 0x3620 <__divsf3+0x24>
    3616:	0c 94 07 1c 	jmp	0x380e	; 0x380e <__fp_inf>
    361a:	51 11       	cpse	r21, r1
    361c:	0c 94 91 1c 	jmp	0x3922	; 0x3922 <__fp_szero>
    3620:	0c 94 0d 1c 	jmp	0x381a	; 0x381a <__fp_nan>

00003624 <__divsf3x>:
    3624:	0e 94 6e 1c 	call	0x38dc	; 0x38dc <__fp_split3>
    3628:	68 f3       	brcs	.-38     	; 0x3604 <__divsf3+0x8>

0000362a <__divsf3_pse>:
    362a:	99 23       	and	r25, r25
    362c:	b1 f3       	breq	.-20     	; 0x361a <__divsf3+0x1e>
    362e:	55 23       	and	r21, r21
    3630:	91 f3       	breq	.-28     	; 0x3616 <__divsf3+0x1a>
    3632:	95 1b       	sub	r25, r21
    3634:	55 0b       	sbc	r21, r21
    3636:	bb 27       	eor	r27, r27
    3638:	aa 27       	eor	r26, r26
    363a:	62 17       	cp	r22, r18
    363c:	73 07       	cpc	r23, r19
    363e:	84 07       	cpc	r24, r20
    3640:	38 f0       	brcs	.+14     	; 0x3650 <__divsf3_pse+0x26>
    3642:	9f 5f       	subi	r25, 0xFF	; 255
    3644:	5f 4f       	sbci	r21, 0xFF	; 255
    3646:	22 0f       	add	r18, r18
    3648:	33 1f       	adc	r19, r19
    364a:	44 1f       	adc	r20, r20
    364c:	aa 1f       	adc	r26, r26
    364e:	a9 f3       	breq	.-22     	; 0x363a <__divsf3_pse+0x10>
    3650:	35 d0       	rcall	.+106    	; 0x36bc <__divsf3_pse+0x92>
    3652:	0e 2e       	mov	r0, r30
    3654:	3a f0       	brmi	.+14     	; 0x3664 <__divsf3_pse+0x3a>
    3656:	e0 e8       	ldi	r30, 0x80	; 128
    3658:	32 d0       	rcall	.+100    	; 0x36be <__divsf3_pse+0x94>
    365a:	91 50       	subi	r25, 0x01	; 1
    365c:	50 40       	sbci	r21, 0x00	; 0
    365e:	e6 95       	lsr	r30
    3660:	00 1c       	adc	r0, r0
    3662:	ca f7       	brpl	.-14     	; 0x3656 <__divsf3_pse+0x2c>
    3664:	2b d0       	rcall	.+86     	; 0x36bc <__divsf3_pse+0x92>
    3666:	fe 2f       	mov	r31, r30
    3668:	29 d0       	rcall	.+82     	; 0x36bc <__divsf3_pse+0x92>
    366a:	66 0f       	add	r22, r22
    366c:	77 1f       	adc	r23, r23
    366e:	88 1f       	adc	r24, r24
    3670:	bb 1f       	adc	r27, r27
    3672:	26 17       	cp	r18, r22
    3674:	37 07       	cpc	r19, r23
    3676:	48 07       	cpc	r20, r24
    3678:	ab 07       	cpc	r26, r27
    367a:	b0 e8       	ldi	r27, 0x80	; 128
    367c:	09 f0       	breq	.+2      	; 0x3680 <__divsf3_pse+0x56>
    367e:	bb 0b       	sbc	r27, r27
    3680:	80 2d       	mov	r24, r0
    3682:	bf 01       	movw	r22, r30
    3684:	ff 27       	eor	r31, r31
    3686:	93 58       	subi	r25, 0x83	; 131
    3688:	5f 4f       	sbci	r21, 0xFF	; 255
    368a:	3a f0       	brmi	.+14     	; 0x369a <__divsf3_pse+0x70>
    368c:	9e 3f       	cpi	r25, 0xFE	; 254
    368e:	51 05       	cpc	r21, r1
    3690:	78 f0       	brcs	.+30     	; 0x36b0 <__divsf3_pse+0x86>
    3692:	0c 94 07 1c 	jmp	0x380e	; 0x380e <__fp_inf>
    3696:	0c 94 91 1c 	jmp	0x3922	; 0x3922 <__fp_szero>
    369a:	5f 3f       	cpi	r21, 0xFF	; 255
    369c:	e4 f3       	brlt	.-8      	; 0x3696 <__divsf3_pse+0x6c>
    369e:	98 3e       	cpi	r25, 0xE8	; 232
    36a0:	d4 f3       	brlt	.-12     	; 0x3696 <__divsf3_pse+0x6c>
    36a2:	86 95       	lsr	r24
    36a4:	77 95       	ror	r23
    36a6:	67 95       	ror	r22
    36a8:	b7 95       	ror	r27
    36aa:	f7 95       	ror	r31
    36ac:	9f 5f       	subi	r25, 0xFF	; 255
    36ae:	c9 f7       	brne	.-14     	; 0x36a2 <__divsf3_pse+0x78>
    36b0:	88 0f       	add	r24, r24
    36b2:	91 1d       	adc	r25, r1
    36b4:	96 95       	lsr	r25
    36b6:	87 95       	ror	r24
    36b8:	97 f9       	bld	r25, 7
    36ba:	08 95       	ret
    36bc:	e1 e0       	ldi	r30, 0x01	; 1
    36be:	66 0f       	add	r22, r22
    36c0:	77 1f       	adc	r23, r23
    36c2:	88 1f       	adc	r24, r24
    36c4:	bb 1f       	adc	r27, r27
    36c6:	62 17       	cp	r22, r18
    36c8:	73 07       	cpc	r23, r19
    36ca:	84 07       	cpc	r24, r20
    36cc:	ba 07       	cpc	r27, r26
    36ce:	20 f0       	brcs	.+8      	; 0x36d8 <__divsf3_pse+0xae>
    36d0:	62 1b       	sub	r22, r18
    36d2:	73 0b       	sbc	r23, r19
    36d4:	84 0b       	sbc	r24, r20
    36d6:	ba 0b       	sbc	r27, r26
    36d8:	ee 1f       	adc	r30, r30
    36da:	88 f7       	brcc	.-30     	; 0x36be <__divsf3_pse+0x94>
    36dc:	e0 95       	com	r30
    36de:	08 95       	ret

000036e0 <__fixsfsi>:
    36e0:	0e 94 77 1b 	call	0x36ee	; 0x36ee <__fixunssfsi>
    36e4:	68 94       	set
    36e6:	b1 11       	cpse	r27, r1
    36e8:	0c 94 91 1c 	jmp	0x3922	; 0x3922 <__fp_szero>
    36ec:	08 95       	ret

000036ee <__fixunssfsi>:
    36ee:	0e 94 76 1c 	call	0x38ec	; 0x38ec <__fp_splitA>
    36f2:	88 f0       	brcs	.+34     	; 0x3716 <__fixunssfsi+0x28>
    36f4:	9f 57       	subi	r25, 0x7F	; 127
    36f6:	98 f0       	brcs	.+38     	; 0x371e <__fixunssfsi+0x30>
    36f8:	b9 2f       	mov	r27, r25
    36fa:	99 27       	eor	r25, r25
    36fc:	b7 51       	subi	r27, 0x17	; 23
    36fe:	b0 f0       	brcs	.+44     	; 0x372c <__fixunssfsi+0x3e>
    3700:	e1 f0       	breq	.+56     	; 0x373a <__fixunssfsi+0x4c>
    3702:	66 0f       	add	r22, r22
    3704:	77 1f       	adc	r23, r23
    3706:	88 1f       	adc	r24, r24
    3708:	99 1f       	adc	r25, r25
    370a:	1a f0       	brmi	.+6      	; 0x3712 <__fixunssfsi+0x24>
    370c:	ba 95       	dec	r27
    370e:	c9 f7       	brne	.-14     	; 0x3702 <__fixunssfsi+0x14>
    3710:	14 c0       	rjmp	.+40     	; 0x373a <__fixunssfsi+0x4c>
    3712:	b1 30       	cpi	r27, 0x01	; 1
    3714:	91 f0       	breq	.+36     	; 0x373a <__fixunssfsi+0x4c>
    3716:	0e 94 90 1c 	call	0x3920	; 0x3920 <__fp_zero>
    371a:	b1 e0       	ldi	r27, 0x01	; 1
    371c:	08 95       	ret
    371e:	0c 94 90 1c 	jmp	0x3920	; 0x3920 <__fp_zero>
    3722:	67 2f       	mov	r22, r23
    3724:	78 2f       	mov	r23, r24
    3726:	88 27       	eor	r24, r24
    3728:	b8 5f       	subi	r27, 0xF8	; 248
    372a:	39 f0       	breq	.+14     	; 0x373a <__fixunssfsi+0x4c>
    372c:	b9 3f       	cpi	r27, 0xF9	; 249
    372e:	cc f3       	brlt	.-14     	; 0x3722 <__fixunssfsi+0x34>
    3730:	86 95       	lsr	r24
    3732:	77 95       	ror	r23
    3734:	67 95       	ror	r22
    3736:	b3 95       	inc	r27
    3738:	d9 f7       	brne	.-10     	; 0x3730 <__fixunssfsi+0x42>
    373a:	3e f4       	brtc	.+14     	; 0x374a <__fixunssfsi+0x5c>
    373c:	90 95       	com	r25
    373e:	80 95       	com	r24
    3740:	70 95       	com	r23
    3742:	61 95       	neg	r22
    3744:	7f 4f       	sbci	r23, 0xFF	; 255
    3746:	8f 4f       	sbci	r24, 0xFF	; 255
    3748:	9f 4f       	sbci	r25, 0xFF	; 255
    374a:	08 95       	ret

0000374c <__floatunsisf>:
    374c:	e8 94       	clt
    374e:	09 c0       	rjmp	.+18     	; 0x3762 <__floatsisf+0x12>

00003750 <__floatsisf>:
    3750:	97 fb       	bst	r25, 7
    3752:	3e f4       	brtc	.+14     	; 0x3762 <__floatsisf+0x12>
    3754:	90 95       	com	r25
    3756:	80 95       	com	r24
    3758:	70 95       	com	r23
    375a:	61 95       	neg	r22
    375c:	7f 4f       	sbci	r23, 0xFF	; 255
    375e:	8f 4f       	sbci	r24, 0xFF	; 255
    3760:	9f 4f       	sbci	r25, 0xFF	; 255
    3762:	99 23       	and	r25, r25
    3764:	a9 f0       	breq	.+42     	; 0x3790 <__floatsisf+0x40>
    3766:	f9 2f       	mov	r31, r25
    3768:	96 e9       	ldi	r25, 0x96	; 150
    376a:	bb 27       	eor	r27, r27
    376c:	93 95       	inc	r25
    376e:	f6 95       	lsr	r31
    3770:	87 95       	ror	r24
    3772:	77 95       	ror	r23
    3774:	67 95       	ror	r22
    3776:	b7 95       	ror	r27
    3778:	f1 11       	cpse	r31, r1
    377a:	f8 cf       	rjmp	.-16     	; 0x376c <__floatsisf+0x1c>
    377c:	fa f4       	brpl	.+62     	; 0x37bc <__floatsisf+0x6c>
    377e:	bb 0f       	add	r27, r27
    3780:	11 f4       	brne	.+4      	; 0x3786 <__floatsisf+0x36>
    3782:	60 ff       	sbrs	r22, 0
    3784:	1b c0       	rjmp	.+54     	; 0x37bc <__floatsisf+0x6c>
    3786:	6f 5f       	subi	r22, 0xFF	; 255
    3788:	7f 4f       	sbci	r23, 0xFF	; 255
    378a:	8f 4f       	sbci	r24, 0xFF	; 255
    378c:	9f 4f       	sbci	r25, 0xFF	; 255
    378e:	16 c0       	rjmp	.+44     	; 0x37bc <__floatsisf+0x6c>
    3790:	88 23       	and	r24, r24
    3792:	11 f0       	breq	.+4      	; 0x3798 <__floatsisf+0x48>
    3794:	96 e9       	ldi	r25, 0x96	; 150
    3796:	11 c0       	rjmp	.+34     	; 0x37ba <__floatsisf+0x6a>
    3798:	77 23       	and	r23, r23
    379a:	21 f0       	breq	.+8      	; 0x37a4 <__floatsisf+0x54>
    379c:	9e e8       	ldi	r25, 0x8E	; 142
    379e:	87 2f       	mov	r24, r23
    37a0:	76 2f       	mov	r23, r22
    37a2:	05 c0       	rjmp	.+10     	; 0x37ae <__floatsisf+0x5e>
    37a4:	66 23       	and	r22, r22
    37a6:	71 f0       	breq	.+28     	; 0x37c4 <__floatsisf+0x74>
    37a8:	96 e8       	ldi	r25, 0x86	; 134
    37aa:	86 2f       	mov	r24, r22
    37ac:	70 e0       	ldi	r23, 0x00	; 0
    37ae:	60 e0       	ldi	r22, 0x00	; 0
    37b0:	2a f0       	brmi	.+10     	; 0x37bc <__floatsisf+0x6c>
    37b2:	9a 95       	dec	r25
    37b4:	66 0f       	add	r22, r22
    37b6:	77 1f       	adc	r23, r23
    37b8:	88 1f       	adc	r24, r24
    37ba:	da f7       	brpl	.-10     	; 0x37b2 <__floatsisf+0x62>
    37bc:	88 0f       	add	r24, r24
    37be:	96 95       	lsr	r25
    37c0:	87 95       	ror	r24
    37c2:	97 f9       	bld	r25, 7
    37c4:	08 95       	ret

000037c6 <__fp_cmp>:
    37c6:	99 0f       	add	r25, r25
    37c8:	00 08       	sbc	r0, r0
    37ca:	55 0f       	add	r21, r21
    37cc:	aa 0b       	sbc	r26, r26
    37ce:	e0 e8       	ldi	r30, 0x80	; 128
    37d0:	fe ef       	ldi	r31, 0xFE	; 254
    37d2:	16 16       	cp	r1, r22
    37d4:	17 06       	cpc	r1, r23
    37d6:	e8 07       	cpc	r30, r24
    37d8:	f9 07       	cpc	r31, r25
    37da:	c0 f0       	brcs	.+48     	; 0x380c <__fp_cmp+0x46>
    37dc:	12 16       	cp	r1, r18
    37de:	13 06       	cpc	r1, r19
    37e0:	e4 07       	cpc	r30, r20
    37e2:	f5 07       	cpc	r31, r21
    37e4:	98 f0       	brcs	.+38     	; 0x380c <__fp_cmp+0x46>
    37e6:	62 1b       	sub	r22, r18
    37e8:	73 0b       	sbc	r23, r19
    37ea:	84 0b       	sbc	r24, r20
    37ec:	95 0b       	sbc	r25, r21
    37ee:	39 f4       	brne	.+14     	; 0x37fe <__fp_cmp+0x38>
    37f0:	0a 26       	eor	r0, r26
    37f2:	61 f0       	breq	.+24     	; 0x380c <__fp_cmp+0x46>
    37f4:	23 2b       	or	r18, r19
    37f6:	24 2b       	or	r18, r20
    37f8:	25 2b       	or	r18, r21
    37fa:	21 f4       	brne	.+8      	; 0x3804 <__fp_cmp+0x3e>
    37fc:	08 95       	ret
    37fe:	0a 26       	eor	r0, r26
    3800:	09 f4       	brne	.+2      	; 0x3804 <__fp_cmp+0x3e>
    3802:	a1 40       	sbci	r26, 0x01	; 1
    3804:	a6 95       	lsr	r26
    3806:	8f ef       	ldi	r24, 0xFF	; 255
    3808:	81 1d       	adc	r24, r1
    380a:	81 1d       	adc	r24, r1
    380c:	08 95       	ret

0000380e <__fp_inf>:
    380e:	97 f9       	bld	r25, 7
    3810:	9f 67       	ori	r25, 0x7F	; 127
    3812:	80 e8       	ldi	r24, 0x80	; 128
    3814:	70 e0       	ldi	r23, 0x00	; 0
    3816:	60 e0       	ldi	r22, 0x00	; 0
    3818:	08 95       	ret

0000381a <__fp_nan>:
    381a:	9f ef       	ldi	r25, 0xFF	; 255
    381c:	80 ec       	ldi	r24, 0xC0	; 192
    381e:	08 95       	ret

00003820 <__fp_pscA>:
    3820:	00 24       	eor	r0, r0
    3822:	0a 94       	dec	r0
    3824:	16 16       	cp	r1, r22
    3826:	17 06       	cpc	r1, r23
    3828:	18 06       	cpc	r1, r24
    382a:	09 06       	cpc	r0, r25
    382c:	08 95       	ret

0000382e <__fp_pscB>:
    382e:	00 24       	eor	r0, r0
    3830:	0a 94       	dec	r0
    3832:	12 16       	cp	r1, r18
    3834:	13 06       	cpc	r1, r19
    3836:	14 06       	cpc	r1, r20
    3838:	05 06       	cpc	r0, r21
    383a:	08 95       	ret
    383c:	0c 94 0d 1c 	jmp	0x381a	; 0x381a <__fp_nan>

00003840 <__fp_rempio2>:
    3840:	0e 94 76 1c 	call	0x38ec	; 0x38ec <__fp_splitA>
    3844:	d8 f3       	brcs	.-10     	; 0x383c <__fp_pscB+0xe>
    3846:	e8 94       	clt
    3848:	e0 e0       	ldi	r30, 0x00	; 0
    384a:	bb 27       	eor	r27, r27
    384c:	9f 57       	subi	r25, 0x7F	; 127
    384e:	f0 f0       	brcs	.+60     	; 0x388c <__fp_rempio2+0x4c>
    3850:	2a ed       	ldi	r18, 0xDA	; 218
    3852:	3f e0       	ldi	r19, 0x0F	; 15
    3854:	49 ec       	ldi	r20, 0xC9	; 201
    3856:	06 c0       	rjmp	.+12     	; 0x3864 <__fp_rempio2+0x24>
    3858:	ee 0f       	add	r30, r30
    385a:	bb 0f       	add	r27, r27
    385c:	66 1f       	adc	r22, r22
    385e:	77 1f       	adc	r23, r23
    3860:	88 1f       	adc	r24, r24
    3862:	28 f0       	brcs	.+10     	; 0x386e <__fp_rempio2+0x2e>
    3864:	b2 3a       	cpi	r27, 0xA2	; 162
    3866:	62 07       	cpc	r22, r18
    3868:	73 07       	cpc	r23, r19
    386a:	84 07       	cpc	r24, r20
    386c:	28 f0       	brcs	.+10     	; 0x3878 <__fp_rempio2+0x38>
    386e:	b2 5a       	subi	r27, 0xA2	; 162
    3870:	62 0b       	sbc	r22, r18
    3872:	73 0b       	sbc	r23, r19
    3874:	84 0b       	sbc	r24, r20
    3876:	e3 95       	inc	r30
    3878:	9a 95       	dec	r25
    387a:	72 f7       	brpl	.-36     	; 0x3858 <__fp_rempio2+0x18>
    387c:	80 38       	cpi	r24, 0x80	; 128
    387e:	30 f4       	brcc	.+12     	; 0x388c <__fp_rempio2+0x4c>
    3880:	9a 95       	dec	r25
    3882:	bb 0f       	add	r27, r27
    3884:	66 1f       	adc	r22, r22
    3886:	77 1f       	adc	r23, r23
    3888:	88 1f       	adc	r24, r24
    388a:	d2 f7       	brpl	.-12     	; 0x3880 <__fp_rempio2+0x40>
    388c:	90 48       	sbci	r25, 0x80	; 128
    388e:	0c 94 0e 1d 	jmp	0x3a1c	; 0x3a1c <__fp_mpack_finite>

00003892 <__fp_round>:
    3892:	09 2e       	mov	r0, r25
    3894:	03 94       	inc	r0
    3896:	00 0c       	add	r0, r0
    3898:	11 f4       	brne	.+4      	; 0x389e <__fp_round+0xc>
    389a:	88 23       	and	r24, r24
    389c:	52 f0       	brmi	.+20     	; 0x38b2 <__fp_round+0x20>
    389e:	bb 0f       	add	r27, r27
    38a0:	40 f4       	brcc	.+16     	; 0x38b2 <__fp_round+0x20>
    38a2:	bf 2b       	or	r27, r31
    38a4:	11 f4       	brne	.+4      	; 0x38aa <__fp_round+0x18>
    38a6:	60 ff       	sbrs	r22, 0
    38a8:	04 c0       	rjmp	.+8      	; 0x38b2 <__fp_round+0x20>
    38aa:	6f 5f       	subi	r22, 0xFF	; 255
    38ac:	7f 4f       	sbci	r23, 0xFF	; 255
    38ae:	8f 4f       	sbci	r24, 0xFF	; 255
    38b0:	9f 4f       	sbci	r25, 0xFF	; 255
    38b2:	08 95       	ret

000038b4 <__fp_sinus>:
    38b4:	ef 93       	push	r30
    38b6:	e0 ff       	sbrs	r30, 0
    38b8:	07 c0       	rjmp	.+14     	; 0x38c8 <__fp_sinus+0x14>
    38ba:	a2 ea       	ldi	r26, 0xA2	; 162
    38bc:	2a ed       	ldi	r18, 0xDA	; 218
    38be:	3f e0       	ldi	r19, 0x0F	; 15
    38c0:	49 ec       	ldi	r20, 0xC9	; 201
    38c2:	5f eb       	ldi	r21, 0xBF	; 191
    38c4:	0e 94 9f 1a 	call	0x353e	; 0x353e <__addsf3x>
    38c8:	0e 94 49 1c 	call	0x3892	; 0x3892 <__fp_round>
    38cc:	0f 90       	pop	r0
    38ce:	03 94       	inc	r0
    38d0:	01 fc       	sbrc	r0, 1
    38d2:	90 58       	subi	r25, 0x80	; 128
    38d4:	e4 e7       	ldi	r30, 0x74	; 116
    38d6:	f0 e0       	ldi	r31, 0x00	; 0
    38d8:	0c 94 1a 1d 	jmp	0x3a34	; 0x3a34 <__fp_powsodd>

000038dc <__fp_split3>:
    38dc:	57 fd       	sbrc	r21, 7
    38de:	90 58       	subi	r25, 0x80	; 128
    38e0:	44 0f       	add	r20, r20
    38e2:	55 1f       	adc	r21, r21
    38e4:	59 f0       	breq	.+22     	; 0x38fc <__fp_splitA+0x10>
    38e6:	5f 3f       	cpi	r21, 0xFF	; 255
    38e8:	71 f0       	breq	.+28     	; 0x3906 <__fp_splitA+0x1a>
    38ea:	47 95       	ror	r20

000038ec <__fp_splitA>:
    38ec:	88 0f       	add	r24, r24
    38ee:	97 fb       	bst	r25, 7
    38f0:	99 1f       	adc	r25, r25
    38f2:	61 f0       	breq	.+24     	; 0x390c <__fp_splitA+0x20>
    38f4:	9f 3f       	cpi	r25, 0xFF	; 255
    38f6:	79 f0       	breq	.+30     	; 0x3916 <__fp_splitA+0x2a>
    38f8:	87 95       	ror	r24
    38fa:	08 95       	ret
    38fc:	12 16       	cp	r1, r18
    38fe:	13 06       	cpc	r1, r19
    3900:	14 06       	cpc	r1, r20
    3902:	55 1f       	adc	r21, r21
    3904:	f2 cf       	rjmp	.-28     	; 0x38ea <__fp_split3+0xe>
    3906:	46 95       	lsr	r20
    3908:	f1 df       	rcall	.-30     	; 0x38ec <__fp_splitA>
    390a:	08 c0       	rjmp	.+16     	; 0x391c <__fp_splitA+0x30>
    390c:	16 16       	cp	r1, r22
    390e:	17 06       	cpc	r1, r23
    3910:	18 06       	cpc	r1, r24
    3912:	99 1f       	adc	r25, r25
    3914:	f1 cf       	rjmp	.-30     	; 0x38f8 <__fp_splitA+0xc>
    3916:	86 95       	lsr	r24
    3918:	71 05       	cpc	r23, r1
    391a:	61 05       	cpc	r22, r1
    391c:	08 94       	sec
    391e:	08 95       	ret

00003920 <__fp_zero>:
    3920:	e8 94       	clt

00003922 <__fp_szero>:
    3922:	bb 27       	eor	r27, r27
    3924:	66 27       	eor	r22, r22
    3926:	77 27       	eor	r23, r23
    3928:	cb 01       	movw	r24, r22
    392a:	97 f9       	bld	r25, 7
    392c:	08 95       	ret

0000392e <__mulsf3>:
    392e:	0e 94 aa 1c 	call	0x3954	; 0x3954 <__mulsf3x>
    3932:	0c 94 49 1c 	jmp	0x3892	; 0x3892 <__fp_round>
    3936:	0e 94 10 1c 	call	0x3820	; 0x3820 <__fp_pscA>
    393a:	38 f0       	brcs	.+14     	; 0x394a <__mulsf3+0x1c>
    393c:	0e 94 17 1c 	call	0x382e	; 0x382e <__fp_pscB>
    3940:	20 f0       	brcs	.+8      	; 0x394a <__mulsf3+0x1c>
    3942:	95 23       	and	r25, r21
    3944:	11 f0       	breq	.+4      	; 0x394a <__mulsf3+0x1c>
    3946:	0c 94 07 1c 	jmp	0x380e	; 0x380e <__fp_inf>
    394a:	0c 94 0d 1c 	jmp	0x381a	; 0x381a <__fp_nan>
    394e:	11 24       	eor	r1, r1
    3950:	0c 94 91 1c 	jmp	0x3922	; 0x3922 <__fp_szero>

00003954 <__mulsf3x>:
    3954:	0e 94 6e 1c 	call	0x38dc	; 0x38dc <__fp_split3>
    3958:	70 f3       	brcs	.-36     	; 0x3936 <__mulsf3+0x8>

0000395a <__mulsf3_pse>:
    395a:	95 9f       	mul	r25, r21
    395c:	c1 f3       	breq	.-16     	; 0x394e <__mulsf3+0x20>
    395e:	95 0f       	add	r25, r21
    3960:	50 e0       	ldi	r21, 0x00	; 0
    3962:	55 1f       	adc	r21, r21
    3964:	62 9f       	mul	r22, r18
    3966:	f0 01       	movw	r30, r0
    3968:	72 9f       	mul	r23, r18
    396a:	bb 27       	eor	r27, r27
    396c:	f0 0d       	add	r31, r0
    396e:	b1 1d       	adc	r27, r1
    3970:	63 9f       	mul	r22, r19
    3972:	aa 27       	eor	r26, r26
    3974:	f0 0d       	add	r31, r0
    3976:	b1 1d       	adc	r27, r1
    3978:	aa 1f       	adc	r26, r26
    397a:	64 9f       	mul	r22, r20
    397c:	66 27       	eor	r22, r22
    397e:	b0 0d       	add	r27, r0
    3980:	a1 1d       	adc	r26, r1
    3982:	66 1f       	adc	r22, r22
    3984:	82 9f       	mul	r24, r18
    3986:	22 27       	eor	r18, r18
    3988:	b0 0d       	add	r27, r0
    398a:	a1 1d       	adc	r26, r1
    398c:	62 1f       	adc	r22, r18
    398e:	73 9f       	mul	r23, r19
    3990:	b0 0d       	add	r27, r0
    3992:	a1 1d       	adc	r26, r1
    3994:	62 1f       	adc	r22, r18
    3996:	83 9f       	mul	r24, r19
    3998:	a0 0d       	add	r26, r0
    399a:	61 1d       	adc	r22, r1
    399c:	22 1f       	adc	r18, r18
    399e:	74 9f       	mul	r23, r20
    39a0:	33 27       	eor	r19, r19
    39a2:	a0 0d       	add	r26, r0
    39a4:	61 1d       	adc	r22, r1
    39a6:	23 1f       	adc	r18, r19
    39a8:	84 9f       	mul	r24, r20
    39aa:	60 0d       	add	r22, r0
    39ac:	21 1d       	adc	r18, r1
    39ae:	82 2f       	mov	r24, r18
    39b0:	76 2f       	mov	r23, r22
    39b2:	6a 2f       	mov	r22, r26
    39b4:	11 24       	eor	r1, r1
    39b6:	9f 57       	subi	r25, 0x7F	; 127
    39b8:	50 40       	sbci	r21, 0x00	; 0
    39ba:	9a f0       	brmi	.+38     	; 0x39e2 <__mulsf3_pse+0x88>
    39bc:	f1 f0       	breq	.+60     	; 0x39fa <__mulsf3_pse+0xa0>
    39be:	88 23       	and	r24, r24
    39c0:	4a f0       	brmi	.+18     	; 0x39d4 <__mulsf3_pse+0x7a>
    39c2:	ee 0f       	add	r30, r30
    39c4:	ff 1f       	adc	r31, r31
    39c6:	bb 1f       	adc	r27, r27
    39c8:	66 1f       	adc	r22, r22
    39ca:	77 1f       	adc	r23, r23
    39cc:	88 1f       	adc	r24, r24
    39ce:	91 50       	subi	r25, 0x01	; 1
    39d0:	50 40       	sbci	r21, 0x00	; 0
    39d2:	a9 f7       	brne	.-22     	; 0x39be <__mulsf3_pse+0x64>
    39d4:	9e 3f       	cpi	r25, 0xFE	; 254
    39d6:	51 05       	cpc	r21, r1
    39d8:	80 f0       	brcs	.+32     	; 0x39fa <__mulsf3_pse+0xa0>
    39da:	0c 94 07 1c 	jmp	0x380e	; 0x380e <__fp_inf>
    39de:	0c 94 91 1c 	jmp	0x3922	; 0x3922 <__fp_szero>
    39e2:	5f 3f       	cpi	r21, 0xFF	; 255
    39e4:	e4 f3       	brlt	.-8      	; 0x39de <__mulsf3_pse+0x84>
    39e6:	98 3e       	cpi	r25, 0xE8	; 232
    39e8:	d4 f3       	brlt	.-12     	; 0x39de <__mulsf3_pse+0x84>
    39ea:	86 95       	lsr	r24
    39ec:	77 95       	ror	r23
    39ee:	67 95       	ror	r22
    39f0:	b7 95       	ror	r27
    39f2:	f7 95       	ror	r31
    39f4:	e7 95       	ror	r30
    39f6:	9f 5f       	subi	r25, 0xFF	; 255
    39f8:	c1 f7       	brne	.-16     	; 0x39ea <__mulsf3_pse+0x90>
    39fa:	fe 2b       	or	r31, r30
    39fc:	88 0f       	add	r24, r24
    39fe:	91 1d       	adc	r25, r1
    3a00:	96 95       	lsr	r25
    3a02:	87 95       	ror	r24
    3a04:	97 f9       	bld	r25, 7
    3a06:	08 95       	ret

00003a08 <sin>:
    3a08:	9f 93       	push	r25
    3a0a:	0e 94 20 1c 	call	0x3840	; 0x3840 <__fp_rempio2>
    3a0e:	0f 90       	pop	r0
    3a10:	07 fc       	sbrc	r0, 7
    3a12:	ee 5f       	subi	r30, 0xFE	; 254
    3a14:	0c 94 5a 1c 	jmp	0x38b4	; 0x38b4 <__fp_sinus>

00003a18 <__fp_mpack>:
    3a18:	9f 3f       	cpi	r25, 0xFF	; 255
    3a1a:	31 f0       	breq	.+12     	; 0x3a28 <__fp_mpack_finite+0xc>

00003a1c <__fp_mpack_finite>:
    3a1c:	91 50       	subi	r25, 0x01	; 1
    3a1e:	20 f4       	brcc	.+8      	; 0x3a28 <__fp_mpack_finite+0xc>
    3a20:	87 95       	ror	r24
    3a22:	77 95       	ror	r23
    3a24:	67 95       	ror	r22
    3a26:	b7 95       	ror	r27
    3a28:	88 0f       	add	r24, r24
    3a2a:	91 1d       	adc	r25, r1
    3a2c:	96 95       	lsr	r25
    3a2e:	87 95       	ror	r24
    3a30:	97 f9       	bld	r25, 7
    3a32:	08 95       	ret

00003a34 <__fp_powsodd>:
    3a34:	9f 93       	push	r25
    3a36:	8f 93       	push	r24
    3a38:	7f 93       	push	r23
    3a3a:	6f 93       	push	r22
    3a3c:	ff 93       	push	r31
    3a3e:	ef 93       	push	r30
    3a40:	9b 01       	movw	r18, r22
    3a42:	ac 01       	movw	r20, r24
    3a44:	0e 94 97 1c 	call	0x392e	; 0x392e <__mulsf3>
    3a48:	ef 91       	pop	r30
    3a4a:	ff 91       	pop	r31
    3a4c:	0e 94 2e 1d 	call	0x3a5c	; 0x3a5c <__fp_powser>
    3a50:	2f 91       	pop	r18
    3a52:	3f 91       	pop	r19
    3a54:	4f 91       	pop	r20
    3a56:	5f 91       	pop	r21
    3a58:	0c 94 97 1c 	jmp	0x392e	; 0x392e <__mulsf3>

00003a5c <__fp_powser>:
    3a5c:	df 93       	push	r29
    3a5e:	cf 93       	push	r28
    3a60:	1f 93       	push	r17
    3a62:	0f 93       	push	r16
    3a64:	ff 92       	push	r15
    3a66:	ef 92       	push	r14
    3a68:	df 92       	push	r13
    3a6a:	7b 01       	movw	r14, r22
    3a6c:	8c 01       	movw	r16, r24
    3a6e:	68 94       	set
    3a70:	06 c0       	rjmp	.+12     	; 0x3a7e <__fp_powser+0x22>
    3a72:	da 2e       	mov	r13, r26
    3a74:	ef 01       	movw	r28, r30
    3a76:	0e 94 aa 1c 	call	0x3954	; 0x3954 <__mulsf3x>
    3a7a:	fe 01       	movw	r30, r28
    3a7c:	e8 94       	clt
    3a7e:	a5 91       	lpm	r26, Z+
    3a80:	25 91       	lpm	r18, Z+
    3a82:	35 91       	lpm	r19, Z+
    3a84:	45 91       	lpm	r20, Z+
    3a86:	55 91       	lpm	r21, Z+
    3a88:	a6 f3       	brts	.-24     	; 0x3a72 <__fp_powser+0x16>
    3a8a:	ef 01       	movw	r28, r30
    3a8c:	0e 94 9f 1a 	call	0x353e	; 0x353e <__addsf3x>
    3a90:	fe 01       	movw	r30, r28
    3a92:	97 01       	movw	r18, r14
    3a94:	a8 01       	movw	r20, r16
    3a96:	da 94       	dec	r13
    3a98:	69 f7       	brne	.-38     	; 0x3a74 <__fp_powser+0x18>
    3a9a:	df 90       	pop	r13
    3a9c:	ef 90       	pop	r14
    3a9e:	ff 90       	pop	r15
    3aa0:	0f 91       	pop	r16
    3aa2:	1f 91       	pop	r17
    3aa4:	cf 91       	pop	r28
    3aa6:	df 91       	pop	r29
    3aa8:	08 95       	ret

00003aaa <__mulsi3>:
    3aaa:	db 01       	movw	r26, r22
    3aac:	8f 93       	push	r24
    3aae:	9f 93       	push	r25
    3ab0:	0e 94 c0 1d 	call	0x3b80	; 0x3b80 <__muluhisi3>
    3ab4:	bf 91       	pop	r27
    3ab6:	af 91       	pop	r26
    3ab8:	a2 9f       	mul	r26, r18
    3aba:	80 0d       	add	r24, r0
    3abc:	91 1d       	adc	r25, r1
    3abe:	a3 9f       	mul	r26, r19
    3ac0:	90 0d       	add	r25, r0
    3ac2:	b2 9f       	mul	r27, r18
    3ac4:	90 0d       	add	r25, r0
    3ac6:	11 24       	eor	r1, r1
    3ac8:	08 95       	ret

00003aca <__divmodhi4>:
    3aca:	97 fb       	bst	r25, 7
    3acc:	07 2e       	mov	r0, r23
    3ace:	16 f4       	brtc	.+4      	; 0x3ad4 <__divmodhi4+0xa>
    3ad0:	00 94       	com	r0
    3ad2:	07 d0       	rcall	.+14     	; 0x3ae2 <__divmodhi4_neg1>
    3ad4:	77 fd       	sbrc	r23, 7
    3ad6:	09 d0       	rcall	.+18     	; 0x3aea <__divmodhi4_neg2>
    3ad8:	0e 94 d3 1d 	call	0x3ba6	; 0x3ba6 <__udivmodhi4>
    3adc:	07 fc       	sbrc	r0, 7
    3ade:	05 d0       	rcall	.+10     	; 0x3aea <__divmodhi4_neg2>
    3ae0:	3e f4       	brtc	.+14     	; 0x3af0 <__divmodhi4_exit>

00003ae2 <__divmodhi4_neg1>:
    3ae2:	90 95       	com	r25
    3ae4:	81 95       	neg	r24
    3ae6:	9f 4f       	sbci	r25, 0xFF	; 255
    3ae8:	08 95       	ret

00003aea <__divmodhi4_neg2>:
    3aea:	70 95       	com	r23
    3aec:	61 95       	neg	r22
    3aee:	7f 4f       	sbci	r23, 0xFF	; 255

00003af0 <__divmodhi4_exit>:
    3af0:	08 95       	ret

00003af2 <__udivmodsi4>:
    3af2:	a1 e2       	ldi	r26, 0x21	; 33
    3af4:	1a 2e       	mov	r1, r26
    3af6:	aa 1b       	sub	r26, r26
    3af8:	bb 1b       	sub	r27, r27
    3afa:	fd 01       	movw	r30, r26
    3afc:	0d c0       	rjmp	.+26     	; 0x3b18 <__udivmodsi4_ep>

00003afe <__udivmodsi4_loop>:
    3afe:	aa 1f       	adc	r26, r26
    3b00:	bb 1f       	adc	r27, r27
    3b02:	ee 1f       	adc	r30, r30
    3b04:	ff 1f       	adc	r31, r31
    3b06:	a2 17       	cp	r26, r18
    3b08:	b3 07       	cpc	r27, r19
    3b0a:	e4 07       	cpc	r30, r20
    3b0c:	f5 07       	cpc	r31, r21
    3b0e:	20 f0       	brcs	.+8      	; 0x3b18 <__udivmodsi4_ep>
    3b10:	a2 1b       	sub	r26, r18
    3b12:	b3 0b       	sbc	r27, r19
    3b14:	e4 0b       	sbc	r30, r20
    3b16:	f5 0b       	sbc	r31, r21

00003b18 <__udivmodsi4_ep>:
    3b18:	66 1f       	adc	r22, r22
    3b1a:	77 1f       	adc	r23, r23
    3b1c:	88 1f       	adc	r24, r24
    3b1e:	99 1f       	adc	r25, r25
    3b20:	1a 94       	dec	r1
    3b22:	69 f7       	brne	.-38     	; 0x3afe <__udivmodsi4_loop>
    3b24:	60 95       	com	r22
    3b26:	70 95       	com	r23
    3b28:	80 95       	com	r24
    3b2a:	90 95       	com	r25
    3b2c:	9b 01       	movw	r18, r22
    3b2e:	ac 01       	movw	r20, r24
    3b30:	bd 01       	movw	r22, r26
    3b32:	cf 01       	movw	r24, r30
    3b34:	08 95       	ret

00003b36 <__divmodsi4>:
    3b36:	05 2e       	mov	r0, r21
    3b38:	97 fb       	bst	r25, 7
    3b3a:	1e f4       	brtc	.+6      	; 0x3b42 <__divmodsi4+0xc>
    3b3c:	00 94       	com	r0
    3b3e:	0e 94 b2 1d 	call	0x3b64	; 0x3b64 <__negsi2>
    3b42:	57 fd       	sbrc	r21, 7
    3b44:	07 d0       	rcall	.+14     	; 0x3b54 <__divmodsi4_neg2>
    3b46:	0e 94 79 1d 	call	0x3af2	; 0x3af2 <__udivmodsi4>
    3b4a:	07 fc       	sbrc	r0, 7
    3b4c:	03 d0       	rcall	.+6      	; 0x3b54 <__divmodsi4_neg2>
    3b4e:	4e f4       	brtc	.+18     	; 0x3b62 <__divmodsi4_exit>
    3b50:	0c 94 b2 1d 	jmp	0x3b64	; 0x3b64 <__negsi2>

00003b54 <__divmodsi4_neg2>:
    3b54:	50 95       	com	r21
    3b56:	40 95       	com	r20
    3b58:	30 95       	com	r19
    3b5a:	21 95       	neg	r18
    3b5c:	3f 4f       	sbci	r19, 0xFF	; 255
    3b5e:	4f 4f       	sbci	r20, 0xFF	; 255
    3b60:	5f 4f       	sbci	r21, 0xFF	; 255

00003b62 <__divmodsi4_exit>:
    3b62:	08 95       	ret

00003b64 <__negsi2>:
    3b64:	90 95       	com	r25
    3b66:	80 95       	com	r24
    3b68:	70 95       	com	r23
    3b6a:	61 95       	neg	r22
    3b6c:	7f 4f       	sbci	r23, 0xFF	; 255
    3b6e:	8f 4f       	sbci	r24, 0xFF	; 255
    3b70:	9f 4f       	sbci	r25, 0xFF	; 255
    3b72:	08 95       	ret

00003b74 <__tablejump2__>:
    3b74:	ee 0f       	add	r30, r30
    3b76:	ff 1f       	adc	r31, r31
    3b78:	05 90       	lpm	r0, Z+
    3b7a:	f4 91       	lpm	r31, Z
    3b7c:	e0 2d       	mov	r30, r0
    3b7e:	09 94       	ijmp

00003b80 <__muluhisi3>:
    3b80:	0e 94 e7 1d 	call	0x3bce	; 0x3bce <__umulhisi3>
    3b84:	a5 9f       	mul	r26, r21
    3b86:	90 0d       	add	r25, r0
    3b88:	b4 9f       	mul	r27, r20
    3b8a:	90 0d       	add	r25, r0
    3b8c:	a4 9f       	mul	r26, r20
    3b8e:	80 0d       	add	r24, r0
    3b90:	91 1d       	adc	r25, r1
    3b92:	11 24       	eor	r1, r1
    3b94:	08 95       	ret

00003b96 <__mulshisi3>:
    3b96:	b7 ff       	sbrs	r27, 7
    3b98:	0c 94 c0 1d 	jmp	0x3b80	; 0x3b80 <__muluhisi3>

00003b9c <__mulohisi3>:
    3b9c:	0e 94 c0 1d 	call	0x3b80	; 0x3b80 <__muluhisi3>
    3ba0:	82 1b       	sub	r24, r18
    3ba2:	93 0b       	sbc	r25, r19
    3ba4:	08 95       	ret

00003ba6 <__udivmodhi4>:
    3ba6:	aa 1b       	sub	r26, r26
    3ba8:	bb 1b       	sub	r27, r27
    3baa:	51 e1       	ldi	r21, 0x11	; 17
    3bac:	07 c0       	rjmp	.+14     	; 0x3bbc <__udivmodhi4_ep>

00003bae <__udivmodhi4_loop>:
    3bae:	aa 1f       	adc	r26, r26
    3bb0:	bb 1f       	adc	r27, r27
    3bb2:	a6 17       	cp	r26, r22
    3bb4:	b7 07       	cpc	r27, r23
    3bb6:	10 f0       	brcs	.+4      	; 0x3bbc <__udivmodhi4_ep>
    3bb8:	a6 1b       	sub	r26, r22
    3bba:	b7 0b       	sbc	r27, r23

00003bbc <__udivmodhi4_ep>:
    3bbc:	88 1f       	adc	r24, r24
    3bbe:	99 1f       	adc	r25, r25
    3bc0:	5a 95       	dec	r21
    3bc2:	a9 f7       	brne	.-22     	; 0x3bae <__udivmodhi4_loop>
    3bc4:	80 95       	com	r24
    3bc6:	90 95       	com	r25
    3bc8:	bc 01       	movw	r22, r24
    3bca:	cd 01       	movw	r24, r26
    3bcc:	08 95       	ret

00003bce <__umulhisi3>:
    3bce:	a2 9f       	mul	r26, r18
    3bd0:	b0 01       	movw	r22, r0
    3bd2:	b3 9f       	mul	r27, r19
    3bd4:	c0 01       	movw	r24, r0
    3bd6:	a3 9f       	mul	r26, r19
    3bd8:	70 0d       	add	r23, r0
    3bda:	81 1d       	adc	r24, r1
    3bdc:	11 24       	eor	r1, r1
    3bde:	91 1d       	adc	r25, r1
    3be0:	b2 9f       	mul	r27, r18
    3be2:	70 0d       	add	r23, r0
    3be4:	81 1d       	adc	r24, r1
    3be6:	11 24       	eor	r1, r1
    3be8:	91 1d       	adc	r25, r1
    3bea:	08 95       	ret

00003bec <do_rand>:
    3bec:	8f 92       	push	r8
    3bee:	9f 92       	push	r9
    3bf0:	af 92       	push	r10
    3bf2:	bf 92       	push	r11
    3bf4:	cf 92       	push	r12
    3bf6:	df 92       	push	r13
    3bf8:	ef 92       	push	r14
    3bfa:	ff 92       	push	r15
    3bfc:	cf 93       	push	r28
    3bfe:	df 93       	push	r29
    3c00:	ec 01       	movw	r28, r24
    3c02:	68 81       	ld	r22, Y
    3c04:	79 81       	ldd	r23, Y+1	; 0x01
    3c06:	8a 81       	ldd	r24, Y+2	; 0x02
    3c08:	9b 81       	ldd	r25, Y+3	; 0x03
    3c0a:	61 15       	cp	r22, r1
    3c0c:	71 05       	cpc	r23, r1
    3c0e:	81 05       	cpc	r24, r1
    3c10:	91 05       	cpc	r25, r1
    3c12:	21 f4       	brne	.+8      	; 0x3c1c <do_rand+0x30>
    3c14:	64 e2       	ldi	r22, 0x24	; 36
    3c16:	79 ed       	ldi	r23, 0xD9	; 217
    3c18:	8b e5       	ldi	r24, 0x5B	; 91
    3c1a:	97 e0       	ldi	r25, 0x07	; 7
    3c1c:	2d e1       	ldi	r18, 0x1D	; 29
    3c1e:	33 ef       	ldi	r19, 0xF3	; 243
    3c20:	41 e0       	ldi	r20, 0x01	; 1
    3c22:	50 e0       	ldi	r21, 0x00	; 0
    3c24:	0e 94 9b 1d 	call	0x3b36	; 0x3b36 <__divmodsi4>
    3c28:	49 01       	movw	r8, r18
    3c2a:	5a 01       	movw	r10, r20
    3c2c:	9b 01       	movw	r18, r22
    3c2e:	ac 01       	movw	r20, r24
    3c30:	a7 ea       	ldi	r26, 0xA7	; 167
    3c32:	b1 e4       	ldi	r27, 0x41	; 65
    3c34:	0e 94 c0 1d 	call	0x3b80	; 0x3b80 <__muluhisi3>
    3c38:	6b 01       	movw	r12, r22
    3c3a:	7c 01       	movw	r14, r24
    3c3c:	ac ee       	ldi	r26, 0xEC	; 236
    3c3e:	b4 ef       	ldi	r27, 0xF4	; 244
    3c40:	a5 01       	movw	r20, r10
    3c42:	94 01       	movw	r18, r8
    3c44:	0e 94 ce 1d 	call	0x3b9c	; 0x3b9c <__mulohisi3>
    3c48:	dc 01       	movw	r26, r24
    3c4a:	cb 01       	movw	r24, r22
    3c4c:	8c 0d       	add	r24, r12
    3c4e:	9d 1d       	adc	r25, r13
    3c50:	ae 1d       	adc	r26, r14
    3c52:	bf 1d       	adc	r27, r15
    3c54:	b7 ff       	sbrs	r27, 7
    3c56:	03 c0       	rjmp	.+6      	; 0x3c5e <do_rand+0x72>
    3c58:	01 97       	sbiw	r24, 0x01	; 1
    3c5a:	a1 09       	sbc	r26, r1
    3c5c:	b0 48       	sbci	r27, 0x80	; 128
    3c5e:	88 83       	st	Y, r24
    3c60:	99 83       	std	Y+1, r25	; 0x01
    3c62:	aa 83       	std	Y+2, r26	; 0x02
    3c64:	bb 83       	std	Y+3, r27	; 0x03
    3c66:	9f 77       	andi	r25, 0x7F	; 127
    3c68:	df 91       	pop	r29
    3c6a:	cf 91       	pop	r28
    3c6c:	ff 90       	pop	r15
    3c6e:	ef 90       	pop	r14
    3c70:	df 90       	pop	r13
    3c72:	cf 90       	pop	r12
    3c74:	bf 90       	pop	r11
    3c76:	af 90       	pop	r10
    3c78:	9f 90       	pop	r9
    3c7a:	8f 90       	pop	r8
    3c7c:	08 95       	ret

00003c7e <rand_r>:
    3c7e:	0e 94 f6 1d 	call	0x3bec	; 0x3bec <do_rand>
    3c82:	08 95       	ret

00003c84 <rand>:
    3c84:	80 e6       	ldi	r24, 0x60	; 96
    3c86:	90 e0       	ldi	r25, 0x00	; 0
    3c88:	0e 94 f6 1d 	call	0x3bec	; 0x3bec <do_rand>
    3c8c:	08 95       	ret

00003c8e <srand>:
    3c8e:	a0 e0       	ldi	r26, 0x00	; 0
    3c90:	b0 e0       	ldi	r27, 0x00	; 0
    3c92:	80 93 60 00 	sts	0x0060, r24	; 0x800060 <__DATA_REGION_ORIGIN__>
    3c96:	90 93 61 00 	sts	0x0061, r25	; 0x800061 <__DATA_REGION_ORIGIN__+0x1>
    3c9a:	a0 93 62 00 	sts	0x0062, r26	; 0x800062 <__DATA_REGION_ORIGIN__+0x2>
    3c9e:	b0 93 63 00 	sts	0x0063, r27	; 0x800063 <__DATA_REGION_ORIGIN__+0x3>
    3ca2:	08 95       	ret

00003ca4 <_exit>:
    3ca4:	f8 94       	cli

00003ca6 <__stop_program>:
    3ca6:	ff cf       	rjmp	.-2      	; 0x3ca6 <__stop_program>
